

HI-TECH Software PIC18 PRO Macro Assembler V9.80 build 11162 
                                                                                               Wed Jan 08 17:44:06 2014

HI-TECH Software Omniscient Code Generator (PRO mode) build 11162
     1                           	processor	18F2520
     2                           	fnconf	rparam,??,?,0
     3                           	opt	pw 120
     4                           	opt	pm
     5                           	psect	idataCOMRAM,global,class=CODE,delta=1
     6                           	psect	cinit,global,reloc=2,class=CODE,delta=1
     7                           	psect	bssCOMRAM,global,class=COMRAM,space=1,delta=1
     8                           	psect	dataCOMRAM,global,class=COMRAM,space=1,delta=1
     9                           	psect	cstackCOMRAM,global,class=COMRAM,space=1,delta=1
    10                           	psect	text0,global,reloc=2,class=CODE,delta=1
    11                           	psect	text1,global,reloc=2,class=CODE,delta=1
    12                           	psect	text2,global,reloc=2,class=CODE,delta=1
    13                           	psect	text3,global,reloc=2,class=CODE,delta=1
    14                           	psect	text4,global,reloc=2,class=CODE,delta=1
    15                           	psect	text5,global,reloc=2,class=CODE,delta=1
    16                           	psect	intcode,global,reloc=2,class=CODE,delta=1
    17                           	psect	intcode_body,global,reloc=2,class=CODE,delta=1
    18                           	psect	text7,global,reloc=2,class=CODE,delta=1
    19                           	psect	intsave_regs,global,class=BIGRAM,space=1,delta=1
    20                           	psect	text8,global,reloc=2,class=CODE,delta=1
    21                           	psect	rparam,global,class=COMRAM,space=1,delta=1
    22                           	psect	pa_nodes,global,class=CODE,delta=1
    23  0000                     intcon	equ	0xFF2
    24                           wreg	equ	0xFE8
    25                           status	equ	0xFD8
    26                           
    27                           	psect	idataCOMRAM
    28  00056A                     __pidataCOMRAM:
    29                           	opt stack 0
    30                           
    31                           ;initializer for _i2c_tx_reg_sizes
    32  00056A  01                 	db	1
    33  00056B  0E                 	db	14
    34                           
    35                           ;initializer for _i2c_tx_registers
    36  00056C  6A                 	db	low _camera_order
    37  00056D  39                 	db	low _acquisition_data
    38                           
    39                           ;initializer for _i2c_rx_registers
    40  00056E  19                 	db	low _i2c_rx_frame
    41                           
    42                           ;initializer for _camera_order
    43  00056F  53                 	db	83
    44  0000                     _ADCON0	set	4034
    45  0000                     _ADCON1	set	4033
    46  0000                     _ADCON2	set	4032
    47  0000                     _ADRESH	set	4036
    48  0000                     _ADRESL	set	4035
    49  0000                     _BAUDCON	set	4024
    50  0000                     _CCP1CON	set	4029
    51  0000                     _CCPR1L	set	4030
    52  0000                     _PORTA	set	3968
    53  0000                     _PORTB	set	3969
    54  0000                     _PORTC	set	3970
    55  0000                     _PR2	set	4043
    56  0000                     _RCREG	set	4014
    57  0000                     _RCSTA	set	4011
    58  0000                     _SPBRG	set	4015
    59  0000                     _SSPADD	set	4040
    60  0000                     _SSPBUF	set	4041
    61  0000                     _SSPCON1	set	4038
    62  0000                     _SSPCON1bits	set	4038
    63  0000                     _SSPCON2bits	set	4037
    64  0000                     _SSPSTAT	set	4039
    65  0000                     _SSPSTATbits	set	4039
    66  0000                     _T0CON	set	4053
    67  0000                     _T2CON	set	4042
    68  0000                     _TMR0H	set	4055
    69  0000                     _TMR0L	set	4054
    70  0000                     _TRISA	set	3986
    71  0000                     _TRISB	set	3987
    72  0000                     _TRISC	set	3988
    73  0000                     _TXREG	set	4013
    74  0000                     _TXSTA	set	4012
    75  0000                     _BCLIF	set	32011
    76  0000                     _GIE	set	32663
    77  0000                     _GO	set	32273
    78  0000                     _IPEN	set	32391
    79  0000                     _PEIE	set	32662
    80  0000                     _RB1	set	31753
    81  0000                     _RB2	set	31754
    82  0000                     _RB3	set	31755
    83  0000                     _RB4	set	31756
    84  0000                     _RB5	set	31757
    85  0000                     _RB6	set	31758
    86  0000                     _RB7	set	31759
    87  0000                     _RCIE	set	31981
    88  0000                     _RCIF	set	31989
    89  0000                     _SSPIF	set	31987
    90  0000                     _TMR0IE	set	32661
    91  0000                     _TMR0IF	set	32658
    92  0000                     _TXIF	set	31988
    93                           
    94                           ; #config settings
    95  0000                     intcon	equ	0xFF2
    96                           wreg	equ	0xFE8
    97                           status	equ	0xFD8
    98                           
    99                           	psect	cinit
   100  0004DE                     __pcinit:
   101                           	opt stack 0
   102  0004DE                     start_initialization:
   103                           	opt stack 0
   104                           
   105                           ; Clear objects allocated to COMRAM (70 bytes)
   106  0004DE  EE00  F001         	lfsr	0,__pbssCOMRAM
   107  0004E2  0E46               	movlw	70
   108  0004E4                     clear_0:
   109  0004E4  6AEE               	clrf	postinc0,c
   110  0004E6  06E8               	decf	wreg,f,c
   111  0004E8  E1FD               	bnz	clear_0
   112                           
   113                           ; Initialize objects allocated to COMRAM (6 bytes)
   114                           ; load TBLPTR registers with __pidataCOMRAM
   115  0004EA  0E6A               	movlw	low __pidataCOMRAM
   116  0004EC  6EF6               	movwf	tblptrl,c
   117  0004EE  0E05               	movlw	high __pidataCOMRAM
   118  0004F0  6EF7               	movwf	tblptrh,c
   119  0004F2  0E00               	movlw	low (__pidataCOMRAM shr (0+16))
   120  0004F4  6EF8               	movwf	tblptru,c
   121  0004F6  EE00  F065         	lfsr	0,__pdataCOMRAM
   122  0004FA  EE10 F006          	lfsr	1,6
   123  0004FE                     copy_data0:
   124  0004FE  0009               	tblrd		*+
   125  000500  CFF5 FFEE          	movff	tablat,postinc0
   126  000504  50E5               	movf	postdec1,w,c
   127  000506  50E1               	movf	fsr1l,w,c
   128  000508  E1FA               	bnz	copy_data0
   129  00050A                     end_of_initialization:
   130                           	opt stack 0
   131  00050A  0100               	movlb	0
   132  00050C  EF14  F001         	goto	_main	;jump to C main() function
   133                           tblptru	equ	0xFF8
   134                           tblptrh	equ	0xFF7
   135                           tblptrl	equ	0xFF6
   136                           tablat	equ	0xFF5
   137                           intcon	equ	0xFF2
   138                           postinc0	equ	0xFEE
   139                           wreg	equ	0xFE8
   140                           postdec1	equ	0xFE5
   141                           fsr1l	equ	0xFE1
   142                           status	equ	0xFD8
   143                           
   144                           	psect	bssCOMRAM
   145  000001                     __pbssCOMRAM:
   146                           	opt stack 0
   147  000001                     _TimerAcquisition:
   148                           	opt stack 0
   149  000001                     	ds	4
   150  000005                     _DEBOUNCEflag:
   151                           	opt stack 0
   152  000005                     	ds	2
   153  000007                     _DEBOUNCEstate:
   154                           	opt stack 0
   155  000007                     	ds	2
   156  000009                     _SOEstate:
   157                           	opt stack 0
   158  000009                     	ds	2
   159  00000B                     _TimerDebounce:
   160                           	opt stack 0
   161  00000B                     	ds	2
   162  00000D                     _TimerHeater:
   163                           	opt stack 0
   164  00000D                     	ds	2
   165  00000F                     _TimerLaser:
   166                           	opt stack 0
   167  00000F                     	ds	2
   168  000011                     _conv:
   169                           	opt stack 0
   170  000011                     	ds	2
   171  000013                     _heater_power:
   172                           	opt stack 0
   173  000013                     	ds	2
   174  000015                     _i2c_index:
   175                           	opt stack 0
   176  000015                     	ds	2
   177  000017                     _i2c_dev_reg:
   178                           	opt stack 0
   179  000017                     	ds	1
   180  000018                     _i2c_state:
   181                           	opt stack 0
   182  000018                     	ds	1
   183  000019                     _i2c_rx_frame:
   184                           	opt stack 0
   185  000019                     	ds	32
   186  000039                     _acquisition_data:
   187                           	opt stack 0
   188  000039                     	ds	14
   189                           tblptru	equ	0xFF8
   190                           tblptrh	equ	0xFF7
   191                           tblptrl	equ	0xFF6
   192                           tablat	equ	0xFF5
   193                           intcon	equ	0xFF2
   194                           postinc0	equ	0xFEE
   195                           wreg	equ	0xFE8
   196                           postdec1	equ	0xFE5
   197                           fsr1l	equ	0xFE1
   198                           status	equ	0xFD8
   199                           
   200                           	psect	dataCOMRAM
   201  000065                     __pdataCOMRAM:
   202                           	opt stack 0
   203  000065                     _i2c_tx_reg_sizes:
   204                           	opt stack 0
   205  000065                     	ds	2
   206  000067                     _i2c_tx_registers:
   207                           	opt stack 0
   208  000067                     	ds	2
   209  000069                     _i2c_rx_registers:
   210                           	opt stack 0
   211  000069                     	ds	1
   212  00006A                     _camera_order:
   213                           	opt stack 0
   214  00006A                     	ds	1
   215                           tblptru	equ	0xFF8
   216                           tblptrh	equ	0xFF7
   217                           tblptrl	equ	0xFF6
   218                           tablat	equ	0xFF5
   219                           intcon	equ	0xFF2
   220                           postinc0	equ	0xFEE
   221                           wreg	equ	0xFE8
   222                           postdec1	equ	0xFE5
   223                           fsr1l	equ	0xFE1
   224                           status	equ	0xFD8
   225                           
   226                           	psect	cstackCOMRAM
   227  000047                     __pcstackCOMRAM:
   228                           	opt stack 0
   229  000047                     ?_i2c_slave_init:
   230                           	opt stack 0
   231  000047                     ?_settings:
   232                           	opt stack 0
   233  000047                     ?_main:
   234                           	opt stack 0
   235  000047                     ?_isr:
   236                           	opt stack 0
   237  000047                     ?i2___llmod:
   238                           	opt stack 0
   239  000047                     i2___llmod@dividend:
   240                           	opt stack 0
   241                           
   242                           ; 4 bytes @ 0x0
   243  000047                     	ds	4
   244  00004B                     i2___llmod@divisor:
   245                           	opt stack 0
   246                           
   247                           ; 4 bytes @ 0x4
   248  00004B                     	ds	4
   249  00004F                     ??i2___llmod:
   250                           	opt stack 0
   251  00004F                     i2___llmod@counter:
   252                           	opt stack 0
   253                           
   254                           ; 1 bytes @ 0x8
   255  00004F                     	ds	1
   256  000050                     ??_isr:
   257                           	opt stack 0
   258                           
   259                           ; 0 bytes @ 0x9
   260  000050                     	ds	6
   261  000056                     ?_sendtemp:
   262                           	opt stack 0
   263  000056                     ??_i2c_slave_init:
   264                           	opt stack 0
   265  000056                     ??_settings:
   266                           	opt stack 0
   267  000056                     ?___wmul:
   268                           	opt stack 0
   269  000056                     ?___llmod:
   270                           	opt stack 0
   271  000056                     i2c_slave_init@id:
   272                           	opt stack 0
   273  000056                     sendtemp@temp:
   274                           	opt stack 0
   275  000056                     ___wmul@multiplier:
   276                           	opt stack 0
   277  000056                     ___llmod@dividend:
   278                           	opt stack 0
   279                           
   280                           ; 4 bytes @ 0xF
   281  000056                     	ds	2
   282  000058                     ??_sendtemp:
   283                           	opt stack 0
   284  000058                     sendtemp@tempH:
   285                           	opt stack 0
   286  000058                     ___wmul@multiplicand:
   287                           	opt stack 0
   288                           
   289                           ; 2 bytes @ 0x11
   290  000058                     	ds	1
   291  000059                     sendtemp@tempL:
   292                           	opt stack 0
   293                           
   294                           ; 1 bytes @ 0x12
   295  000059                     	ds	1
   296  00005A                     ??___wmul:
   297                           	opt stack 0
   298  00005A                     ___wmul@product:
   299                           	opt stack 0
   300  00005A                     ___llmod@divisor:
   301                           	opt stack 0
   302                           
   303                           ; 4 bytes @ 0x13
   304  00005A                     	ds	4
   305  00005E                     ??___llmod:
   306                           	opt stack 0
   307  00005E                     ___llmod@counter:
   308                           	opt stack 0
   309                           
   310                           ; 1 bytes @ 0x17
   311  00005E                     	ds	1
   312  00005F                     ??_main:
   313                           	opt stack 0
   314  00005F                     main@SOEenable:
   315                           	opt stack 0
   316                           
   317                           ; 2 bytes @ 0x18
   318  00005F                     	ds	2
   319  000061                     main@SODSenable:
   320                           	opt stack 0
   321                           
   322                           ; 2 bytes @ 0x1A
   323  000061                     	ds	2
   324  000063                     main@LOenable:
   325                           	opt stack 0
   326                           
   327                           ; 2 bytes @ 0x1C
   328  000063                     	ds	2
   329                           tblptru	equ	0xFF8
   330                           tblptrh	equ	0xFF7
   331                           tblptrl	equ	0xFF6
   332                           tablat	equ	0xFF5
   333                           intcon	equ	0xFF2
   334                           postinc0	equ	0xFEE
   335                           wreg	equ	0xFE8
   336                           postdec1	equ	0xFE5
   337                           fsr1l	equ	0xFE1
   338                           status	equ	0xFD8
   339                           
   340 ;;
   341 ;;Main: autosize = 0, tempsize = 0, incstack = 0, save=0
   342 ;;
   343 ;; *************** function _main *****************
   344 ;; Defined at:
   345 ;;		line 58 in file "C:\Users\Dario & Fabrizio\control_module\main_CV.c"
   346 ;; Parameters:    Size  Location     Type
   347 ;;		None
   348 ;; Auto vars:     Size  Location     Type
   349 ;;  LOenable        2   28[COMRAM] unsigned int 
   350 ;;  SODSenable      2   26[COMRAM] unsigned int 
   351 ;;  SOEenable       2   24[COMRAM] unsigned int 
   352 ;;  t_heat          2    0        unsigned int 
   353 ;;  t_cell          2    0        unsigned int 
   354 ;; Return value:  Size  Location     Type
   355 ;;		None               void
   356 ;; Registers used:
   357 ;;		wreg, fsr0l, fsr0h, fsr1l, fsr1h, fsr2l, fsr2h, status,2, status,0, pclat, tosl, structret, tblptrl, tblptrh, tblptr
      +u, prodl, prodh, bsr, cstack
   358 ;; Tracked objects:
   359 ;;		On entry : 0/0
   360 ;;		On exit  : 0/0
   361 ;;		Unchanged: FFFFFFFF/0
   362 ;; Data sizes:     COMRAM   BANK0   BANK1   BANK2   BANK3   BANK4   BANK5
   363 ;;      Params:         0       0       0       0       0       0       0
   364 ;;      Locals:         6       0       0       0       0       0       0
   365 ;;      Temps:          0       0       0       0       0       0       0
   366 ;;      Totals:         6       0       0       0       0       0       0
   367 ;;Total ram usage:        6 bytes
   368 ;; Hardware stack levels required when called:    3
   369 ;; This function calls:
   370 ;;		_settings
   371 ;;		_i2c_slave_init
   372 ;;		_sendtemp
   373 ;;		___llmod
   374 ;;		___wmul
   375 ;; This function is called by:
   376 ;;		Startup code after reset
   377 ;; This function uses a non-reentrant model
   378 ;;
   379                           
   380                           	psect	text0
   381  000228                     __ptext0:
   382                           	opt stack 0
   383  000228                     _main:
   384                           	opt stack 28
   385                           
   386                           ;main_CV.c: 59: unsigned int LOenable = 0, SODSenable = 0, SOEenable = 0;
   387  000228  6A63               	clrf	main@LOenable,c
   388  00022A  6A64               	clrf	main@LOenable+1,c
   389  00022C  6A61               	clrf	main@SODSenable,c
   390  00022E  6A62               	clrf	main@SODSenable+1,c
   391                           
   392                           ;main_CV.c: 60: unsigned int t_cell = 0, t_heat = 0;
   393  000230  6A5F               	clrf	main@SOEenable,c
   394  000232  6A60               	clrf	main@SOEenable+1,c
   395                           
   396                           ;main_CV.c: 62: settings();
   397  000234  EC48  F002         	call	_settings	;wreg free
   398                           
   399                           ;main_CV.c: 63: i2c_slave_init(0x22u);
   400  000238  0E22               	movlw	34
   401  00023A  ECAB  F002         	call	_i2c_slave_init
   402  00023E                     l891:
   403                           
   404                           ;main_CV.c: 67: {
   405                           ;main_CV.c: 69: if (conv)
   406  00023E  5012               	movf	_conv+1,w,c
   407  000240  1011               	iorwf	_conv,w,c
   408  000242  E022               	bz	l915
   409                           
   410                           ;main_CV.c: 70: {
   411                           ;main_CV.c: 71: conv = 0;
   412  000244  6A11               	clrf	_conv,c
   413  000246  6A12               	clrf	_conv+1,c
   414                           
   415                           ;main_CV.c: 74: ADCON0 = 0b00000001;
   416  000248  0E01               	movlw	1
   417  00024A  6EC2               	movwf	4034,c	;volatile
   418                           
   419                           ;main_CV.c: 75: GO = 1;
   420  00024C  82C2               	bsf	4034,1,c	;volatile
   421                           
   422                           ;main_CV.c: 76: while(GO)
   423  00024E  D004               	goto	l901
   424  000250                     l899:
   425                           
   426                           ;main_CV.c: 77: acquisition_data.temperatures[0].data = (((unsigned int) ADRESH) << 8) +
      +                           (unsigned int) ADRESL;
   427  000250  50C4               	movf	4036,w,c	;volatile
   428  000252  6E3E               	movwf	_acquisition_data+5,c
   429  000254  50C3               	movf	4035,w,c	;volatile
   430  000256  6E3D               	movwf	_acquisition_data+4,c
   431  000258                     l901:
   432  000258  B2C2               	btfsc	4034,1,c	;volatile
   433  00025A  D7FA               	goto	l899
   434                           
   435                           ;main_CV.c: 80: sendtemp(acquisition_data.temperatures[0].data);
   436  00025C  C03D  F056         	movff	_acquisition_data+4,?_sendtemp
   437  000260  C03E  F057         	movff	_acquisition_data+5,?_sendtemp+1
   438  000264  EC9E  F002         	call	_sendtemp	;wreg free
   439                           
   440                           ;main_CV.c: 83: ADCON0 = 0b00000101;
   441  000268  0E05               	movlw	5
   442  00026A  6EC2               	movwf	4034,c	;volatile
   443                           
   444                           ;main_CV.c: 84: GO = 1;
   445  00026C  82C2               	bsf	4034,1,c	;volatile
   446                           
   447                           ;main_CV.c: 85: while(GO)
   448  00026E  D004               	goto	l911
   449  000270                     l909:
   450                           
   451                           ;main_CV.c: 86: acquisition_data.temperatures[1].data = (((unsigned int) ADRESH) << 8) +
      +                           (unsigned int) ADRESL;
   452  000270  50C4               	movf	4036,w,c	;volatile
   453  000272  6E40               	movwf	_acquisition_data+7,c
   454  000274  50C3               	movf	4035,w,c	;volatile
   455  000276  6E3F               	movwf	_acquisition_data+6,c
   456  000278                     l911:
   457  000278  B2C2               	btfsc	4034,1,c	;volatile
   458  00027A  D7FA               	goto	l909
   459                           
   460                           ;main_CV.c: 89: sendtemp(acquisition_data.temperatures[1].data);
   461  00027C  C03F  F056         	movff	_acquisition_data+6,?_sendtemp
   462  000280  C040  F057         	movff	_acquisition_data+7,?_sendtemp+1
   463  000284  EC9E  F002         	call	_sendtemp	;wreg free
   464  000288                     l915:
   465                           
   466                           ;main_CV.c: 90: }
   467                           ;main_CV.c: 93: if((RB3)&&(!LOenable))
   468  000288  A681               	btfss	3969,3,c	;volatile
   469  00028A  D01A               	goto	l935
   470  00028C  5064               	movf	main@LOenable+1,w,c
   471  00028E  1063               	iorwf	main@LOenable,w,c
   472  000290  E117               	bnz	l935
   473                           
   474                           ;main_CV.c: 94: {
   475                           ;main_CV.c: 95: DEBOUNCEstate=1;
   476  000292  6A08               	clrf	_DEBOUNCEstate+1,c
   477  000294  0E01               	movlw	1
   478  000296  6E07               	movwf	_DEBOUNCEstate,c
   479                           
   480                           ;main_CV.c: 96: if((RB3)&&(!LOenable)&&(DEBOUNCEflag))
   481  000298  A681               	btfss	3969,3,c	;volatile
   482  00029A  D012               	goto	l935
   483  00029C  5064               	movf	main@LOenable+1,w,c
   484  00029E  1063               	iorwf	main@LOenable,w,c
   485  0002A0  E10F               	bnz	l935
   486                           
   487                           ;main_CV.c: 97: {
   488                           ;main_CV.c: 98: LOstate=1;
   489  0002A2  5006               	movf	_DEBOUNCEflag+1,w,c
   490  0002A4  1005               	iorwf	_DEBOUNCEflag,w,c
   491  0002A6  E00C               	bz	l935
   492                           
   493                           ;main_CV.c: 99: LOenable=1;
   494  0002A8  6A64               	clrf	main@LOenable+1,c
   495  0002AA  0E01               	movlw	1
   496  0002AC  6E63               	movwf	main@LOenable,c
   497                           
   498                           ;main_CV.c: 100: RB5=1;
   499  0002AE  8A81               	bsf	3969,5,c	;volatile
   500                           
   501                           ;main_CV.c: 101: DEBOUNCEflag=0;
   502  0002B0  6A05               	clrf	_DEBOUNCEflag,c
   503  0002B2  6A06               	clrf	_DEBOUNCEflag+1,c
   504                           
   505                           ;main_CV.c: 104: TimerLaser=acquisition_data.time+5000;
   506  0002B4  0E88               	movlw	136
   507  0002B6  2439               	addwf	_acquisition_data,w,c
   508  0002B8  6E0F               	movwf	_TimerLaser,c
   509  0002BA  0E13               	movlw	19
   510  0002BC  203A               	addwfc	_acquisition_data+1,w,c
   511  0002BE  6E10               	movwf	_TimerLaser+1,c
   512  0002C0                     l935:
   513                           
   514                           ;main_CV.c: 105: }
   515                           ;main_CV.c: 106: }
   516                           ;main_CV.c: 109: if((RB1)&&(LOenable)&&(!SODSenable))
   517  0002C0  A281               	btfss	3969,1,c	;volatile
   518  0002C2  D029               	goto	l961
   519  0002C4  5064               	movf	main@LOenable+1,w,c
   520  0002C6  1063               	iorwf	main@LOenable,w,c
   521  0002C8  E026               	bz	l961
   522  0002CA  5062               	movf	main@SODSenable+1,w,c
   523  0002CC  1061               	iorwf	main@SODSenable,w,c
   524  0002CE  E123               	bnz	l961
   525                           
   526                           ;main_CV.c: 110: {
   527                           ;main_CV.c: 111: DEBOUNCEstate=1;
   528  0002D0  6A08               	clrf	_DEBOUNCEstate+1,c
   529  0002D2  0E01               	movlw	1
   530  0002D4  6E07               	movwf	_DEBOUNCEstate,c
   531                           
   532                           ;main_CV.c: 112: if((RB1)&&(LOenable)&&(!SODSenable)&&(DEBOUNCEflag))
   533  0002D6  A281               	btfss	3969,1,c	;volatile
   534  0002D8  D01E               	goto	l961
   535  0002DA  5064               	movf	main@LOenable+1,w,c
   536  0002DC  1063               	iorwf	main@LOenable,w,c
   537  0002DE  E01B               	bz	l961
   538  0002E0  5062               	movf	main@SODSenable+1,w,c
   539  0002E2  1061               	iorwf	main@SODSenable,w,c
   540  0002E4  E118               	bnz	l961
   541                           
   542                           ;main_CV.c: 113: {
   543                           ;main_CV.c: 114: SODSstate=1;
   544  0002E6  5006               	movf	_DEBOUNCEflag+1,w,c
   545  0002E8  1005               	iorwf	_DEBOUNCEflag,w,c
   546  0002EA  E015               	bz	l961
   547                           
   548                           ;main_CV.c: 115: SODSenable=1;
   549  0002EC  6A62               	clrf	main@SODSenable+1,c
   550  0002EE  0E01               	movlw	1
   551  0002F0  6E61               	movwf	main@SODSenable,c
   552                           
   553                           ;main_CV.c: 116: RB6=1;
   554  0002F2  8C81               	bsf	3969,6,c	;volatile
   555                           
   556                           ;main_CV.c: 119: LOstate=0;
   557  0002F4  6A05               	clrf	_DEBOUNCEflag,c
   558  0002F6  6A06               	clrf	_DEBOUNCEflag+1,c
   559                           
   560                           ;main_CV.c: 120: RB5=0;
   561  0002F8  9A81               	bcf	3969,5,c	;volatile
   562                           
   563                           ;main_CV.c: 124: camera_order=START_ACQUISITION;
   564  0002FA  0E47               	movlw	71
   565  0002FC  6E6A               	movwf	_camera_order,c
   566                           
   567                           ;main_CV.c: 125: TimerAcquisition=acquisition_data.time+140000;
   568  0002FE  0EE0               	movlw	224
   569  000300  2439               	addwf	_acquisition_data,w,c
   570  000302  6E01               	movwf	_TimerAcquisition,c
   571  000304  0E22               	movlw	34
   572  000306  203A               	addwfc	_acquisition_data+1,w,c
   573  000308  6E02               	movwf	_TimerAcquisition+1,c
   574  00030A  0E02               	movlw	2
   575  00030C  203B               	addwfc	_acquisition_data+2,w,c
   576  00030E  6E03               	movwf	_TimerAcquisition+2,c
   577  000310  0E00               	movlw	0
   578  000312  203C               	addwfc	_acquisition_data+3,w,c
   579  000314  6E04               	movwf	_TimerAcquisition+3,c
   580  000316                     l961:
   581                           
   582                           ;main_CV.c: 126: }
   583                           ;main_CV.c: 127: }
   584                           ;main_CV.c: 130: if((RB2)&&(SODSenable)&&(LOenable)&&(!SOEenable))
   585  000316  A481               	btfss	3969,2,c	;volatile
   586  000318  D792               	goto	l891
   587  00031A  5062               	movf	main@SODSenable+1,w,c
   588  00031C  1061               	iorwf	main@SODSenable,w,c
   589  00031E  E08F               	bz	l891
   590  000320  5064               	movf	main@LOenable+1,w,c
   591  000322  1063               	iorwf	main@LOenable,w,c
   592  000324  E08C               	bz	l891
   593  000326  5060               	movf	main@SOEenable+1,w,c
   594  000328  105F               	iorwf	main@SOEenable,w,c
   595  00032A  E189               	bnz	l891
   596                           
   597                           ;main_CV.c: 131: {
   598                           ;main_CV.c: 132: DEBOUNCEstate=1;
   599  00032C  6A08               	clrf	_DEBOUNCEstate+1,c
   600  00032E  0E01               	movlw	1
   601  000330  6E07               	movwf	_DEBOUNCEstate,c
   602                           
   603                           ;main_CV.c: 133: if((RB2)&&(SODSenable)&&(LOenable)&&(!SOEenable)&&(DEBOUNCEflag))
   604  000332  A481               	btfss	3969,2,c	;volatile
   605  000334  D01B               	goto	l991
   606  000336  5062               	movf	main@SODSenable+1,w,c
   607  000338  1061               	iorwf	main@SODSenable,w,c
   608  00033A  E018               	bz	l991
   609  00033C  5064               	movf	main@LOenable+1,w,c
   610  00033E  1063               	iorwf	main@LOenable,w,c
   611  000340  E015               	bz	l991
   612  000342  5060               	movf	main@SOEenable+1,w,c
   613  000344  105F               	iorwf	main@SOEenable,w,c
   614  000346  E112               	bnz	l991
   615  000348  5006               	movf	_DEBOUNCEflag+1,w,c
   616  00034A  1005               	iorwf	_DEBOUNCEflag,w,c
   617  00034C  E00F               	bz	l991
   618                           
   619                           ;main_CV.c: 134: {
   620                           ;main_CV.c: 135: SOEstate=1;
   621  00034E  6A0A               	clrf	_SOEstate+1,c
   622  000350  0E01               	movlw	1
   623  000352  6E09               	movwf	_SOEstate,c
   624                           
   625                           ;main_CV.c: 136: SOEenable=1;
   626  000354  6A60               	clrf	main@SOEenable+1,c
   627  000356  6E5F               	movwf	main@SOEenable,c
   628                           
   629                           ;main_CV.c: 137: RB7=1;
   630  000358  8E81               	bsf	3969,7,c	;volatile
   631                           
   632                           ;main_CV.c: 140: SODSstate=0;
   633  00035A  6A05               	clrf	_DEBOUNCEflag,c
   634  00035C  6A06               	clrf	_DEBOUNCEflag+1,c
   635                           
   636                           ;main_CV.c: 141: RB6=0;
   637  00035E  9C81               	bcf	3969,6,c	;volatile
   638                           
   639                           ;main_CV.c: 144: TimerHeater=acquisition_data.time+20000;
   640  000360  0E20               	movlw	32
   641  000362  2439               	addwf	_acquisition_data,w,c
   642  000364  6E0D               	movwf	_TimerHeater,c
   643  000366  0E4E               	movlw	78
   644  000368  203A               	addwfc	_acquisition_data+1,w,c
   645  00036A  6E0E               	movwf	_TimerHeater+1,c
   646  00036C                     l991:
   647                           
   648                           ;main_CV.c: 146: }
   649                           ;main_CV.c: 148: if(SOEstate)
   650  00036C  500A               	movf	_SOEstate+1,w,c
   651  00036E  1009               	iorwf	_SOEstate,w,c
   652  000370  E101 D765          	bz	l891
   653                           
   654                           ;main_CV.c: 149: {
   655                           ;main_CV.c: 151: if (acquisition_data.time%5==0)
   656  000374  C039  F056         	movff	_acquisition_data,?___llmod
   657  000378  C03A  F057         	movff	_acquisition_data+1,?___llmod+1
   658  00037C  C03B  F058         	movff	_acquisition_data+2,?___llmod+2
   659  000380  C03C  F059         	movff	_acquisition_data+3,?___llmod+3
   660  000384  0E05               	movlw	5
   661  000386  6E5A               	movwf	?___llmod+4,c
   662  000388  0E00               	movlw	0
   663  00038A  6A5B               	clrf	?___llmod+5,c
   664  00038C  6A5C               	clrf	?___llmod+6,c
   665  00038E  6A5D               	clrf	?___llmod+7,c
   666  000390  EC17  F002         	call	___llmod	;wreg free
   667  000394  5059               	movf	?___llmod+3,w,c
   668  000396  1056               	iorwf	?___llmod,w,c
   669  000398  1057               	iorwf	?___llmod+1,w,c
   670  00039A  1058               	iorwf	?___llmod+2,w,c
   671  00039C  E001 D74F          	bnz	l891
   672                           
   673                           ;main_CV.c: 152: {
   674                           ;main_CV.c: 154: heater_power = 50;
   675  0003A0  6A14               	clrf	_heater_power+1,c
   676  0003A2  0E32               	movlw	50
   677  0003A4  6E13               	movwf	_heater_power,c
   678                           
   679                           ;main_CV.c: 157: heater_power *= 10u;
   680  0003A6  C013  F056         	movff	_heater_power,?___wmul
   681  0003AA  C014  F057         	movff	_heater_power+1,?___wmul+1
   682  0003AE  6A59               	clrf	?___wmul+3,c
   683  0003B0  0E0A               	movlw	10
   684  0003B2  6E58               	movwf	?___wmul+2,c
   685  0003B4  EC88  F002         	call	___wmul	;wreg free
   686  0003B8  C056  F013         	movff	?___wmul,_heater_power
   687  0003BC  C057  F014         	movff	?___wmul+1,_heater_power+1
   688                           
   689                           ;main_CV.c: 160: heater_power = (heater_power < 0) ? 0 : heater_power;
   690  0003C0  AE14               	btfss	_heater_power+1,7,c
   691  0003C2  D002               	goto	l174
   692  0003C4  6A13               	clrf	_heater_power,c
   693  0003C6  6A14               	clrf	_heater_power+1,c
   694  0003C8                     l174:
   695                           
   696                           ;main_CV.c: 161: CCPR1L = 255;
   697  0003C8  68BE               	setf	4030,c	;volatile
   698  0003CA  D739               	goto	l891
   699                           tblptru	equ	0xFF8
   700                           tblptrh	equ	0xFF7
   701                           tblptrl	equ	0xFF6
   702                           tablat	equ	0xFF5
   703                           intcon	equ	0xFF2
   704                           postinc0	equ	0xFEE
   705                           wreg	equ	0xFE8
   706                           postdec1	equ	0xFE5
   707                           fsr1l	equ	0xFE1
   708                           status	equ	0xFD8
   709                           
   710 ;; *************** function _i2c_slave_init *****************
   711 ;; Defined at:
   712 ;;		line 5 in file "D:\Dropbox\Fabrizio DROPBOX\REXUS Project (private)\Onboard software\c\i2c_slave.c"
   713 ;; Parameters:    Size  Location     Type
   714 ;;  id              1    wreg     unsigned char 
   715 ;; Auto vars:     Size  Location     Type
   716 ;;  id              1   15[COMRAM] unsigned char 
   717 ;; Return value:  Size  Location     Type
   718 ;;		None               void
   719 ;; Registers used:
   720 ;;		wreg, status,2
   721 ;; Tracked objects:
   722 ;;		On entry : 0/0
   723 ;;		On exit  : 0/0
   724 ;;		Unchanged: FFFFFFFF/0
   725 ;; Data sizes:     COMRAM   BANK0   BANK1   BANK2   BANK3   BANK4   BANK5
   726 ;;      Params:         0       0       0       0       0       0       0
   727 ;;      Locals:         1       0       0       0       0       0       0
   728 ;;      Temps:          0       0       0       0       0       0       0
   729 ;;      Totals:         1       0       0       0       0       0       0
   730 ;;Total ram usage:        1 bytes
   731 ;; Hardware stack levels used:    1
   732 ;; Hardware stack levels required when called:    2
   733 ;; This function calls:
   734 ;;		Nothing
   735 ;; This function is called by:
   736 ;;		_main
   737 ;; This function uses a non-reentrant model
   738 ;;
   739                           
   740                           	psect	text1
   741  000556                     __ptext1:
   742                           	opt stack 0
   743  000556                     __end_of_main:
   744                           	opt stack 0
   745  000556                     _i2c_slave_init:
   746                           	opt stack 28
   747                           
   748                           ;i2c_slave_init@id stored from wreg
   749  000556  CFE8 F056          	movff	wreg,i2c_slave_init@id
   750                           
   751                           ;i2c_slave.c: 7: SSPSTAT = 0x80;
   752  00055A  0E80               	movlw	128
   753  00055C  6EC7               	movwf	4039,c	;volatile
   754                           
   755                           ;i2c_slave.c: 8: SSPCON1 = 0x36;
   756  00055E  0E36               	movlw	54
   757  000560  6EC6               	movwf	4038,c	;volatile
   758                           
   759                           ;i2c_slave.c: 10: SSPCON2bits.SEN = 1;
   760  000562  80C5               	bsf	4037,0,c	;volatile
   761                           
   762                           ;i2c_slave.c: 12: SSPADD = id;
   763  000564  C056  FFC8         	movff	i2c_slave_init@id,4040	;volatile
   764  000568  0C36               	retlw	54
   765  00056A                     __end_of_i2c_slave_init:
   766                           	opt stack 0
   767                           tblptru	equ	0xFF8
   768                           tblptrh	equ	0xFF7
   769                           tblptrl	equ	0xFF6
   770                           tablat	equ	0xFF5
   771                           intcon	equ	0xFF2
   772                           postinc0	equ	0xFEE
   773                           wreg	equ	0xFE8
   774                           postdec1	equ	0xFE5
   775                           fsr1l	equ	0xFE1
   776                           status	equ	0xFD8
   777                           
   778 ;; *************** function _settings *****************
   779 ;; Defined at:
   780 ;;		line 87 in file "C:\Users\Dario & Fabrizio\control_module\settings.h"
   781 ;; Parameters:    Size  Location     Type
   782 ;;		None
   783 ;; Auto vars:     Size  Location     Type
   784 ;;		None
   785 ;; Return value:  Size  Location     Type
   786 ;;		None               void
   787 ;; Registers used:
   788 ;;		wreg, status,2
   789 ;; Tracked objects:
   790 ;;		On entry : 0/0
   791 ;;		On exit  : 0/0
   792 ;;		Unchanged: FFFFFFFF/0
   793 ;; Data sizes:     COMRAM   BANK0   BANK1   BANK2   BANK3   BANK4   BANK5
   794 ;;      Params:         0       0       0       0       0       0       0
   795 ;;      Locals:         0       0       0       0       0       0       0
   796 ;;      Temps:          0       0       0       0       0       0       0
   797 ;;      Totals:         0       0       0       0       0       0       0
   798 ;;Total ram usage:        0 bytes
   799 ;; Hardware stack levels used:    1
   800 ;; Hardware stack levels required when called:    2
   801 ;; This function calls:
   802 ;;		Nothing
   803 ;; This function is called by:
   804 ;;		_main
   805 ;; This function uses a non-reentrant model
   806 ;;
   807                           
   808                           	psect	text2
   809  000490                     __ptext2:
   810                           	opt stack 0
   811  000490                     _settings:
   812                           	opt stack 28
   813                           
   814                           ;settings.h: 89: PORTA=0;
   815  000490  6A80               	clrf	3968,c	;volatile
   816                           
   817                           ;settings.h: 90: TRISA=0b00000111;
   818  000492  0E07               	movlw	7
   819  000494  6E92               	movwf	3986,c	;volatile
   820                           
   821                           ;settings.h: 91: PORTB=0;
   822  000496  6A81               	clrf	3969,c	;volatile
   823                           
   824                           ;settings.h: 92: TRISB=0b00001110;
   825  000498  0E0E               	movlw	14
   826  00049A  6E93               	movwf	3987,c	;volatile
   827                           
   828                           ;settings.h: 93: PORTC=0;
   829  00049C  6A82               	clrf	3970,c	;volatile
   830                           
   831                           ;settings.h: 94: TRISC=0b11011000;
   832  00049E  0ED8               	movlw	216
   833  0004A0  6E94               	movwf	3988,c	;volatile
   834                           
   835                           ;settings.h: 97: IPEN=0;
   836  0004A2  9ED0               	bcf	4048,7,c	;volatile
   837                           
   838                           ;settings.h: 98: GIE=1;
   839  0004A4  8EF2               	bsf	intcon,7,c	;volatile
   840                           
   841                           ;settings.h: 99: PEIE=1;
   842  0004A6  8CF2               	bsf	intcon,6,c	;volatile
   843                           
   844                           ;settings.h: 100: TMR0IE=1;
   845  0004A8  8AF2               	bsf	intcon,5,c	;volatile
   846                           
   847                           ;settings.h: 101: RCIE=1;
   848  0004AA  8A9D               	bsf	3997,5,c	;volatile
   849                           
   850                           ;settings.h: 106: T0CON=0b10001100;
   851  0004AC  0E8C               	movlw	140
   852  0004AE  6ED5               	movwf	4053,c	;volatile
   853                           
   854                           ;settings.h: 108: TMR0H=0xEC;
   855  0004B0  0EEC               	movlw	236
   856  0004B2  6ED7               	movwf	4055,c	;volatile
   857                           
   858                           ;settings.h: 109: TMR0L=0x77;
   859  0004B4  0E77               	movlw	119
   860  0004B6  6ED6               	movwf	4054,c	;volatile
   861                           
   862                           ;settings.h: 113: TXSTA=0b00100110;
   863  0004B8  0E26               	movlw	38
   864  0004BA  6EAC               	movwf	4012,c	;volatile
   865                           
   866                           ;settings.h: 114: RCSTA=0b10010000;
   867  0004BC  0E90               	movlw	144
   868  0004BE  6EAB               	movwf	4011,c	;volatile
   869                           
   870                           ;settings.h: 115: BAUDCON=0b00001010;
   871  0004C0  0E0A               	movlw	10
   872  0004C2  6EB8               	movwf	4024,c	;volatile
   873                           
   874                           ;settings.h: 116: SPBRG=129;
   875  0004C4  0E81               	movlw	129
   876  0004C6  6EAF               	movwf	4015,c	;volatile
   877                           
   878                           ;settings.h: 120: ADCON1=0b00011010;
   879  0004C8  0E1A               	movlw	26
   880  0004CA  6EC1               	movwf	4033,c	;volatile
   881                           
   882                           ;settings.h: 121: ADCON2=0b10110101;
   883  0004CC  0EB5               	movlw	181
   884  0004CE  6EC0               	movwf	4032,c	;volatile
   885                           
   886                           ;settings.h: 124: CCP1CON=0b00001100;
   887  0004D0  0E0C               	movlw	12
   888  0004D2  6EBD               	movwf	4029,c	;volatile
   889                           
   890                           ;settings.h: 125: PR2=0b11111111;
   891  0004D4  68CB               	setf	4043,c	;volatile
   892                           
   893                           ;settings.h: 126: CCPR1L=0;
   894  0004D6  6ABE               	clrf	4030,c	;volatile
   895                           
   896                           ;settings.h: 127: T2CON=0b100;
   897  0004D8  0E04               	movlw	4
   898  0004DA  6ECA               	movwf	4042,c	;volatile
   899  0004DC  0C04               	retlw	4
   900  0004DE                     __end_of_settings:
   901                           	opt stack 0
   902                           tblptru	equ	0xFF8
   903                           tblptrh	equ	0xFF7
   904                           tblptrl	equ	0xFF6
   905                           tablat	equ	0xFF5
   906                           intcon	equ	0xFF2
   907                           postinc0	equ	0xFEE
   908                           wreg	equ	0xFE8
   909                           postdec1	equ	0xFE5
   910                           fsr1l	equ	0xFE1
   911                           status	equ	0xFD8
   912                           
   913 ;; *************** function _sendtemp *****************
   914 ;; Defined at:
   915 ;;		line 171 in file "C:\Users\Dario & Fabrizio\control_module\main_CV.c"
   916 ;; Parameters:    Size  Location     Type
   917 ;;  temp            2   15[COMRAM] int 
   918 ;; Auto vars:     Size  Location     Type
   919 ;;  tempL           1   18[COMRAM] unsigned char 
   920 ;;  tempH           1   17[COMRAM] unsigned char 
   921 ;; Return value:  Size  Location     Type
   922 ;;		None               void
   923 ;; Registers used:
   924 ;;		wreg, status,2
   925 ;; Tracked objects:
   926 ;;		On entry : 0/0
   927 ;;		On exit  : 0/0
   928 ;;		Unchanged: FFFFFFFF/0
   929 ;; Data sizes:     COMRAM   BANK0   BANK1   BANK2   BANK3   BANK4   BANK5
   930 ;;      Params:         2       0       0       0       0       0       0
   931 ;;      Locals:         2       0       0       0       0       0       0
   932 ;;      Temps:          0       0       0       0       0       0       0
   933 ;;      Totals:         4       0       0       0       0       0       0
   934 ;;Total ram usage:        4 bytes
   935 ;; Hardware stack levels used:    1
   936 ;; Hardware stack levels required when called:    2
   937 ;; This function calls:
   938 ;;		Nothing
   939 ;; This function is called by:
   940 ;;		_main
   941 ;; This function uses a non-reentrant model
   942 ;;
   943                           
   944                           	psect	text3
   945  00053C                     __ptext3:
   946                           	opt stack 0
   947  00053C                     _sendtemp:
   948                           	opt stack 28
   949                           
   950                           ;main_CV.c: 173: unsigned char tempH, tempL;
   951                           ;main_CV.c: 175: tempH = (temp >> 8);
   952  00053C  5057               	movf	sendtemp@temp+1,w,c
   953  00053E  6E58               	movwf	sendtemp@tempH,c
   954  000540                     l180:
   955  000540  A89E               	btfss	3998,4,c	;volatile
   956  000542  D7FE               	goto	l180
   957                           
   958                           ;main_CV.c: 178: TXREG = tempH;
   959  000544  C058  FFAD         	movff	sendtemp@tempH,4013	;volatile
   960                           
   961                           ;main_CV.c: 180: tempL = temp;
   962  000548  C056  F059         	movff	sendtemp@temp,sendtemp@tempL
   963  00054C                     l183:
   964  00054C  A89E               	btfss	3998,4,c	;volatile
   965  00054E  D7FE               	goto	l183
   966                           
   967                           ;main_CV.c: 183: TXREG = tempL;
   968  000550  C059  FFAD         	movff	sendtemp@tempL,4013	;volatile
   969  000554  0012               	return	
   970  000556                     __end_of_sendtemp:
   971                           	opt stack 0
   972                           tblptru	equ	0xFF8
   973                           tblptrh	equ	0xFF7
   974                           tblptrl	equ	0xFF6
   975                           tablat	equ	0xFF5
   976                           intcon	equ	0xFF2
   977                           postinc0	equ	0xFEE
   978                           wreg	equ	0xFE8
   979                           postdec1	equ	0xFE5
   980                           fsr1l	equ	0xFE1
   981                           status	equ	0xFD8
   982                           
   983 ;; *************** function ___llmod *****************
   984 ;; Defined at:
   985 ;;		line 10 in file "C:\Program Files (x86)\HI-TECH Software\PICC-18\9.80\sources\llmod.c"
   986 ;; Parameters:    Size  Location     Type
   987 ;;  dividend        4   15[COMRAM] unsigned long 
   988 ;;  divisor         4   19[COMRAM] unsigned long 
   989 ;; Auto vars:     Size  Location     Type
   990 ;;  counter         1   23[COMRAM] unsigned char 
   991 ;; Return value:  Size  Location     Type
   992 ;;                  4   15[COMRAM] unsigned long 
   993 ;; Registers used:
   994 ;;		wreg, status,2, status,0
   995 ;; Tracked objects:
   996 ;;		On entry : 0/0
   997 ;;		On exit  : 0/0
   998 ;;		Unchanged: FFFFFFFF/0
   999 ;; Data sizes:     COMRAM   BANK0   BANK1   BANK2   BANK3   BANK4   BANK5
  1000 ;;      Params:         8       0       0       0       0       0       0
  1001 ;;      Locals:         1       0       0       0       0       0       0
  1002 ;;      Temps:          0       0       0       0       0       0       0
  1003 ;;      Totals:         9       0       0       0       0       0       0
  1004 ;;Total ram usage:        9 bytes
  1005 ;; Hardware stack levels used:    1
  1006 ;; Hardware stack levels required when called:    2
  1007 ;; This function calls:
  1008 ;;		Nothing
  1009 ;; This function is called by:
  1010 ;;		_main
  1011 ;; This function uses a non-reentrant model
  1012 ;;
  1013                           
  1014                           	psect	text4
  1015  00042E                     __ptext4:
  1016                           	opt stack 0
  1017  00042E                     ___llmod:
  1018                           	opt stack 28
  1019  00042E  505D               	movf	___llmod@divisor+3,w,c
  1020  000430  105A               	iorwf	___llmod@divisor,w,c
  1021  000432  105B               	iorwf	___llmod@divisor+1,w,c
  1022  000434  105C               	iorwf	___llmod@divisor+2,w,c
  1023  000436  E023               	bz	l626
  1024  000438  0E01               	movlw	1
  1025  00043A  6E5E               	movwf	___llmod@counter,c
  1026  00043C  D006               	goto	l1011
  1027  00043E                     l1009:
  1028  00043E  90D8               	bcf	status,0,c
  1029  000440  365A               	rlcf	___llmod@divisor,f,c
  1030  000442  365B               	rlcf	___llmod@divisor+1,f,c
  1031  000444  365C               	rlcf	___llmod@divisor+2,f,c
  1032  000446  365D               	rlcf	___llmod@divisor+3,f,c
  1033  000448  2A5E               	incf	___llmod@counter,f,c
  1034  00044A                     l1011:
  1035  00044A  AE5D               	btfss	___llmod@divisor+3,7,c
  1036  00044C  D7F8               	goto	l1009
  1037  00044E                     l1013:
  1038  00044E  505A               	movf	___llmod@divisor,w,c
  1039  000450  5C56               	subwf	___llmod@dividend,w,c
  1040  000452  505B               	movf	___llmod@divisor+1,w,c
  1041  000454  5857               	subwfb	___llmod@dividend+1,w,c
  1042  000456  505C               	movf	___llmod@divisor+2,w,c
  1043  000458  5858               	subwfb	___llmod@dividend+2,w,c
  1044  00045A  505D               	movf	___llmod@divisor+3,w,c
  1045  00045C  5859               	subwfb	___llmod@dividend+3,w,c
  1046  00045E  E308               	bnc	l1017
  1047  000460  505A               	movf	___llmod@divisor,w,c
  1048  000462  5E56               	subwf	___llmod@dividend,f,c
  1049  000464  505B               	movf	___llmod@divisor+1,w,c
  1050  000466  5A57               	subwfb	___llmod@dividend+1,f,c
  1051  000468  505C               	movf	___llmod@divisor+2,w,c
  1052  00046A  5A58               	subwfb	___llmod@dividend+2,f,c
  1053  00046C  505D               	movf	___llmod@divisor+3,w,c
  1054  00046E  5A59               	subwfb	___llmod@dividend+3,f,c
  1055  000470                     l1017:
  1056  000470  90D8               	bcf	status,0,c
  1057  000472  325D               	rrcf	___llmod@divisor+3,f,c
  1058  000474  325C               	rrcf	___llmod@divisor+2,f,c
  1059  000476  325B               	rrcf	___llmod@divisor+1,f,c
  1060  000478  325A               	rrcf	___llmod@divisor,f,c
  1061  00047A  2E5E               	decfsz	___llmod@counter,f,c
  1062  00047C  D7E8               	goto	l1013
  1063  00047E                     l626:
  1064  00047E  C056  F056         	movff	___llmod@dividend,?___llmod
  1065  000482  C057  F057         	movff	___llmod@dividend+1,?___llmod+1
  1066  000486  C058  F058         	movff	___llmod@dividend+2,?___llmod+2
  1067  00048A  C059  F059         	movff	___llmod@dividend+3,?___llmod+3
  1068  00048E  0012               	return	
  1069  000490                     __end_of___llmod:
  1070                           	opt stack 0
  1071                           tblptru	equ	0xFF8
  1072                           tblptrh	equ	0xFF7
  1073                           tblptrl	equ	0xFF6
  1074                           tablat	equ	0xFF5
  1075                           intcon	equ	0xFF2
  1076                           postinc0	equ	0xFEE
  1077                           wreg	equ	0xFE8
  1078                           postdec1	equ	0xFE5
  1079                           fsr1l	equ	0xFE1
  1080                           status	equ	0xFD8
  1081                           
  1082 ;; *************** function ___wmul *****************
  1083 ;; Defined at:
  1084 ;;		line 3 in file "C:\Program Files (x86)\HI-TECH Software\PICC-18\9.80\sources\wmul.c"
  1085 ;; Parameters:    Size  Location     Type
  1086 ;;  multiplier      2   15[COMRAM] unsigned int 
  1087 ;;  multiplicand    2   17[COMRAM] unsigned int 
  1088 ;; Auto vars:     Size  Location     Type
  1089 ;;  product         2   19[COMRAM] unsigned int 
  1090 ;; Return value:  Size  Location     Type
  1091 ;;                  2   15[COMRAM] unsigned int 
  1092 ;; Registers used:
  1093 ;;		wreg, status,2, status,0
  1094 ;; Tracked objects:
  1095 ;;		On entry : 0/0
  1096 ;;		On exit  : 0/0
  1097 ;;		Unchanged: FFFFFFFF/0
  1098 ;; Data sizes:     COMRAM   BANK0   BANK1   BANK2   BANK3   BANK4   BANK5
  1099 ;;      Params:         4       0       0       0       0       0       0
  1100 ;;      Locals:         2       0       0       0       0       0       0
  1101 ;;      Temps:          0       0       0       0       0       0       0
  1102 ;;      Totals:         6       0       0       0       0       0       0
  1103 ;;Total ram usage:        6 bytes
  1104 ;; Hardware stack levels used:    1
  1105 ;; Hardware stack levels required when called:    2
  1106 ;; This function calls:
  1107 ;;		Nothing
  1108 ;; This function is called by:
  1109 ;;		_main
  1110 ;; This function uses a non-reentrant model
  1111 ;;
  1112                           
  1113                           	psect	text5
  1114  000510                     __ptext5:
  1115                           	opt stack 0
  1116  000510                     ___wmul:
  1117                           	opt stack 28
  1118  000510  6A5A               	clrf	___wmul@product,c
  1119  000512  6A5B               	clrf	___wmul@product+1,c
  1120  000514                     l721:
  1121  000514  A056               	btfss	___wmul@multiplier,0,c
  1122  000516  D004               	goto	l1025
  1123  000518  5058               	movf	___wmul@multiplicand,w,c
  1124  00051A  265A               	addwf	___wmul@product,f,c
  1125  00051C  5059               	movf	___wmul@multiplicand+1,w,c
  1126  00051E  225B               	addwfc	___wmul@product+1,f,c
  1127  000520                     l1025:
  1128  000520  90D8               	bcf	status,0,c
  1129  000522  3658               	rlcf	___wmul@multiplicand,f,c
  1130  000524  3659               	rlcf	___wmul@multiplicand+1,f,c
  1131  000526  90D8               	bcf	status,0,c
  1132  000528  3257               	rrcf	___wmul@multiplier+1,f,c
  1133  00052A  3256               	rrcf	___wmul@multiplier,f,c
  1134  00052C  5057               	movf	___wmul@multiplier+1,w,c
  1135  00052E  1056               	iorwf	___wmul@multiplier,w,c
  1136  000530  E1F1               	bnz	l721
  1137  000532  C05A  F056         	movff	___wmul@product,?___wmul
  1138  000536  C05B  F057         	movff	___wmul@product+1,?___wmul+1
  1139  00053A  0012               	return	
  1140  00053C                     __end_of___wmul:
  1141                           	opt stack 0
  1142                           tblptru	equ	0xFF8
  1143                           tblptrh	equ	0xFF7
  1144                           tblptrl	equ	0xFF6
  1145                           tablat	equ	0xFF5
  1146                           intcon	equ	0xFF2
  1147                           postinc0	equ	0xFEE
  1148                           wreg	equ	0xFE8
  1149                           postdec1	equ	0xFE5
  1150                           fsr1l	equ	0xFE1
  1151                           status	equ	0xFD8
  1152                           
  1153 ;; *************** function _isr *****************
  1154 ;; Defined at:
  1155 ;;		line 207 in file "C:\Users\Dario & Fabrizio\control_module\main_CV.c"
  1156 ;; Parameters:    Size  Location     Type
  1157 ;;		None
  1158 ;; Auto vars:     Size  Location     Type
  1159 ;;		None
  1160 ;; Return value:  Size  Location     Type
  1161 ;;		None               void
  1162 ;; Registers used:
  1163 ;;		wreg, fsr2l, fsr2h, status,2, status,0, cstack
  1164 ;; Tracked objects:
  1165 ;;		On entry : 0/0
  1166 ;;		On exit  : 0/0
  1167 ;;		Unchanged: FFFFFFFF/0
  1168 ;; Data sizes:     COMRAM   BANK0   BANK1   BANK2   BANK3   BANK4   BANK5
  1169 ;;      Params:         0       0       0       0       0       0       0
  1170 ;;      Locals:         0       0       0       0       0       0       0
  1171 ;;      Temps:          6       0       0       0       0       0       0
  1172 ;;      Totals:         6       0       0       0       0       0       0
  1173 ;;Total ram usage:        6 bytes
  1174 ;; Hardware stack levels used:    1
  1175 ;; Hardware stack levels required when called:    1
  1176 ;; This function calls:
  1177 ;;		i2___llmod
  1178 ;; This function is called by:
  1179 ;;		Interrupt level 2
  1180 ;; This function uses a non-reentrant model
  1181 ;;
  1182                           
  1183                           	psect	intcode
  1184  000008                     __pintcode:
  1185                           	opt stack 0
  1186  000008                     _isr:
  1187                           	opt stack 28
  1188  000008  CFD9 F054          	movff	fsr2l,??_isr+4
  1189  00000C  CFDA F055          	movff	fsr2h,??_isr+5
  1190  000010  ED0C  F000         	call	int_func,f	;refresh shadow registers
  1191                           tblptru	equ	0xFF8
  1192                           tblptrh	equ	0xFF7
  1193                           tblptrl	equ	0xFF6
  1194                           tablat	equ	0xFF5
  1195                           intcon	equ	0xFF2
  1196                           postinc0	equ	0xFEE
  1197                           wreg	equ	0xFE8
  1198                           postdec1	equ	0xFE5
  1199                           fsr1l	equ	0xFE1
  1200                           fsr2h	equ	0xFDA
  1201                           fsr2l	equ	0xFD9
  1202                           status	equ	0xFD8
  1203                           
  1204                           	psect	intcode_body
  1205  000018                     __pintcode_body:
  1206                           	opt stack 28
  1207  000018                     int_func:
  1208                           	opt stack 28
  1209  000018  0006               	pop		; remove dummy address from shadow register refresh
  1210  00001A                     
  1211                           ;main_CV.c: 208: if (TMR0IF)
  1212  00001A  A4F2               	btfss	intcon,2,c	;volatile
  1213  00001C  D001               	goto	i2u41_41
  1214  00001E  D001               	goto	i2u41_40
  1215  000020                     i2u41_41:
  1216  000020  D083               	goto	i2l1097
  1217  000022                     i2u41_40:
  1218  000022                     
  1219                           ;main_CV.c: 209: {
  1220                           ;main_CV.c: 211: TMR0IF = 0;
  1221  000022  94F2               	bcf	intcon,2,c	;volatile
  1222  000024                     
  1223                           ;main_CV.c: 214: TMR0H = 0xEC;
  1224  000024  0EEC               	movlw	236
  1225  000026  6ED7               	movwf	4055,c	;volatile
  1226                           
  1227                           ;main_CV.c: 215: TMR0L = 0x77;
  1228  000028  0E77               	movlw	119
  1229  00002A  6ED6               	movwf	4054,c	;volatile
  1230  00002C                     
  1231                           ;main_CV.c: 217: acquisition_data.time++;
  1232  00002C  0E01               	movlw	1
  1233  00002E  2639               	addwf	_acquisition_data,f,c
  1234  000030  0E00               	movlw	0
  1235  000032  223A               	addwfc	_acquisition_data+1,f,c
  1236  000034  0E00               	movlw	0
  1237  000036  223B               	addwfc	_acquisition_data+2,f,c
  1238  000038  0E00               	movlw	0
  1239  00003A  223C               	addwfc	_acquisition_data+3,f,c
  1240  00003C                     
  1241                           ;main_CV.c: 220: if (acquisition_data.time == TimerLaser)
  1242  00003C  500F               	movf	_TimerLaser,w,c
  1243  00003E  6E50               	movwf	??_isr& (0+255),c
  1244  000040  5010               	movf	_TimerLaser+1,w,c
  1245  000042  6E51               	movwf	(??_isr+1)& (0+255),c
  1246  000044  6A52               	clrf	(??_isr+2)& (0+255),c
  1247  000046  6A53               	clrf	(??_isr+3)& (0+255),c
  1248  000048  503C               	movf	_acquisition_data+3,w,c
  1249  00004A  1853               	xorwf	??_isr+3,w,c
  1250  00004C  E108               	bnz	i2u42_45
  1251  00004E  503B               	movf	_acquisition_data+2,w,c
  1252  000050  1852               	xorwf	??_isr+2,w,c
  1253  000052  E105               	bnz	i2u42_45
  1254  000054  503A               	movf	_acquisition_data+1,w,c
  1255  000056  1851               	xorwf	??_isr+1,w,c
  1256  000058  E102               	bnz	i2u42_45
  1257  00005A  5039               	movf	_acquisition_data,w,c
  1258  00005C  1850               	xorwf	??_isr,w,c
  1259  00005E                     i2u42_45:
  1260  00005E  A4D8               	btfss	status,2,c
  1261  000060  D001               	goto	i2u42_41
  1262  000062  D001               	goto	i2u42_40
  1263  000064                     i2u42_41:
  1264  000064  D001               	goto	i2l1073
  1265  000066                     i2u42_40:
  1266  000066                     
  1267                           ;main_CV.c: 221: {
  1268                           ;main_CV.c: 222: RB4 = 1;
  1269  000066  8881               	bsf	3969,4,c	;volatile
  1270  000068                     i2l1073:
  1271                           
  1272                           ;main_CV.c: 223: }
  1273                           ;main_CV.c: 226: if(acquisition_data.time == TimerAcquisition)
  1274  000068  5004               	movf	_TimerAcquisition+3,w,c
  1275  00006A  183C               	xorwf	_acquisition_data+3,w,c
  1276  00006C  E108               	bnz	i2u43_45
  1277  00006E  5003               	movf	_TimerAcquisition+2,w,c
  1278  000070  183B               	xorwf	_acquisition_data+2,w,c
  1279  000072  E105               	bnz	i2u43_45
  1280  000074  5002               	movf	_TimerAcquisition+1,w,c
  1281  000076  183A               	xorwf	_acquisition_data+1,w,c
  1282  000078  E102               	bnz	i2u43_45
  1283  00007A  5001               	movf	_TimerAcquisition,w,c
  1284  00007C  1839               	xorwf	_acquisition_data,w,c
  1285  00007E                     i2u43_45:
  1286  00007E  A4D8               	btfss	status,2,c
  1287  000080  D001               	goto	i2u43_41
  1288  000082  D001               	goto	i2u43_40
  1289  000084                     i2u43_41:
  1290  000084  D002               	goto	i2l1077
  1291  000086                     i2u43_40:
  1292  000086                     
  1293                           ;main_CV.c: 227: {
  1294                           ;main_CV.c: 228: camera_order = STOP_ACQUISITION;
  1295  000086  0E53               	movlw	83
  1296  000088  6E6A               	movwf	_camera_order,c
  1297  00008A                     i2l1077:
  1298                           
  1299                           ;main_CV.c: 229: }
  1300                           ;main_CV.c: 232: if(acquisition_data.time == TimerHeater)
  1301  00008A  500D               	movf	_TimerHeater,w,c
  1302  00008C  6E50               	movwf	??_isr& (0+255),c
  1303  00008E  500E               	movf	_TimerHeater+1,w,c
  1304  000090  6E51               	movwf	(??_isr+1)& (0+255),c
  1305  000092  6A52               	clrf	(??_isr+2)& (0+255),c
  1306  000094  6A53               	clrf	(??_isr+3)& (0+255),c
  1307  000096  503C               	movf	_acquisition_data+3,w,c
  1308  000098  1853               	xorwf	??_isr+3,w,c
  1309  00009A  E108               	bnz	i2u44_45
  1310  00009C  503B               	movf	_acquisition_data+2,w,c
  1311  00009E  1852               	xorwf	??_isr+2,w,c
  1312  0000A0  E105               	bnz	i2u44_45
  1313  0000A2  503A               	movf	_acquisition_data+1,w,c
  1314  0000A4  1851               	xorwf	??_isr+1,w,c
  1315  0000A6  E102               	bnz	i2u44_45
  1316  0000A8  5039               	movf	_acquisition_data,w,c
  1317  0000AA  1850               	xorwf	??_isr,w,c
  1318  0000AC                     i2u44_45:
  1319  0000AC  A4D8               	btfss	status,2,c
  1320  0000AE  D001               	goto	i2u44_41
  1321  0000B0  D001               	goto	i2u44_40
  1322  0000B2                     i2u44_41:
  1323  0000B2  D001               	goto	i2l1081
  1324  0000B4                     i2u44_40:
  1325  0000B4                     
  1326                           ;main_CV.c: 233: {
  1327                           ;main_CV.c: 234: CCPR1L = 0;
  1328  0000B4  6ABE               	clrf	4030,c	;volatile
  1329  0000B6                     i2l1081:
  1330                           
  1331                           ;main_CV.c: 235: }
  1332                           ;main_CV.c: 238: if ((acquisition_data.time % 100) == 0)
  1333  0000B6  C039  F047         	movff	_acquisition_data,?i2___llmod
  1334  0000BA  C03A  F048         	movff	_acquisition_data+1,?i2___llmod+1
  1335  0000BE  C03B  F049         	movff	_acquisition_data+2,?i2___llmod+2
  1336  0000C2  C03C  F04A         	movff	_acquisition_data+3,?i2___llmod+3
  1337  0000C6  0E64               	movlw	100
  1338  0000C8  6E4B               	movwf	?i2___llmod+4,c
  1339  0000CA  0E00               	movlw	0
  1340  0000CC  6E4C               	movwf	?i2___llmod+5,c
  1341  0000CE  0E00               	movlw	0
  1342  0000D0  6E4D               	movwf	?i2___llmod+6,c
  1343  0000D2  0E00               	movlw	0
  1344  0000D4  6E4E               	movwf	?i2___llmod+7,c
  1345  0000D6  ECE6  F001         	call	i2___llmod	;wreg free
  1346  0000DA  504A               	movf	?i2___llmod+3,w,c
  1347  0000DC  1047               	iorwf	?i2___llmod,w,c
  1348  0000DE  1048               	iorwf	?i2___llmod+1,w,c
  1349  0000E0  1049               	iorwf	?i2___llmod+2,w,c
  1350  0000E2  A4D8               	btfss	status,2,c
  1351  0000E4  D001               	goto	i2u45_41
  1352  0000E6  D001               	goto	i2u45_40
  1353  0000E8                     i2u45_41:
  1354  0000E8  D004               	goto	i2l1085
  1355  0000EA                     i2u45_40:
  1356  0000EA                     
  1357                           ;main_CV.c: 239: {
  1358                           ;main_CV.c: 240: conv = 1;
  1359  0000EA  0E00               	movlw	0
  1360  0000EC  6E12               	movwf	_conv+1,c
  1361  0000EE  0E01               	movlw	1
  1362  0000F0  6E11               	movwf	_conv,c
  1363  0000F2                     i2l1085:
  1364                           
  1365                           ;main_CV.c: 241: }
  1366                           ;main_CV.c: 244: if(DEBOUNCEstate)
  1367  0000F2  5008               	movf	_DEBOUNCEstate+1,w,c
  1368  0000F4  1007               	iorwf	_DEBOUNCEstate,w,c
  1369  0000F6  B4D8               	btfsc	status,2,c
  1370  0000F8  D001               	goto	i2u46_41
  1371  0000FA  D001               	goto	i2u46_40
  1372  0000FC                     i2u46_41:
  1373  0000FC  D005               	goto	i2l206
  1374  0000FE                     i2u46_40:
  1375  0000FE                     
  1376                           ;main_CV.c: 245: {
  1377                           ;main_CV.c: 246: TimerDebounce++;
  1378  0000FE  4A0B               	infsnz	_TimerDebounce,f,c
  1379  000100  2A0C               	incf	_TimerDebounce+1,f,c
  1380  000102                     
  1381                           ;main_CV.c: 247: DEBOUNCEstate = 0;
  1382  000102  6A07               	clrf	_DEBOUNCEstate,c
  1383  000104  6A08               	clrf	_DEBOUNCEstate+1,c
  1384                           
  1385                           ;main_CV.c: 248: }
  1386  000106  D002               	goto	i2l1091
  1387  000108                     i2l206:
  1388                           
  1389                           ;main_CV.c: 249: else
  1390                           ;main_CV.c: 250: {
  1391                           ;main_CV.c: 251: TimerDebounce = 0;
  1392  000108  6A0B               	clrf	_TimerDebounce,c
  1393  00010A  6A0C               	clrf	_TimerDebounce+1,c
  1394  00010C                     i2l1091:
  1395                           
  1396                           ;main_CV.c: 252: }
  1397                           ;main_CV.c: 254: if(TimerDebounce >= 50)
  1398  00010C  0E32               	movlw	50
  1399  00010E  5C0B               	subwf	_TimerDebounce,w,c
  1400  000110  0E00               	movlw	0
  1401  000112  580C               	subwfb	_TimerDebounce+1,w,c
  1402  000114  A0D8               	btfss	status,0,c
  1403  000116  D001               	goto	i2u47_41
  1404  000118  D001               	goto	i2u47_40
  1405  00011A                     i2u47_41:
  1406  00011A  D006               	goto	i2l1097
  1407  00011C                     i2u47_40:
  1408  00011C                     
  1409                           ;main_CV.c: 255: {
  1410                           ;main_CV.c: 256: DEBOUNCEflag = 1;
  1411  00011C  0E00               	movlw	0
  1412  00011E  6E06               	movwf	_DEBOUNCEflag+1,c
  1413  000120  0E01               	movlw	1
  1414  000122  6E05               	movwf	_DEBOUNCEflag,c
  1415  000124                     
  1416                           ;main_CV.c: 257: TimerDebounce = 0;
  1417  000124  6A0B               	clrf	_TimerDebounce,c
  1418  000126  6A0C               	clrf	_TimerDebounce+1,c
  1419  000128                     i2l1097:
  1420                           
  1421                           ;main_CV.c: 258: }
  1422                           ;main_CV.c: 259: }
  1423                           ;main_CV.c: 262: if(SSPIF) {
  1424  000128  A69E               	btfss	3998,3,c	;volatile
  1425  00012A  D001               	goto	i2u48_41
  1426  00012C  D001               	goto	i2u48_40
  1427  00012E                     i2u48_41:
  1428  00012E  D06F               	goto	i2l1157
  1429  000130                     i2u48_40:
  1430  000130                     
  1431                           ;main_CV.c: 264: if(SSPSTATbits.R_nW) {
  1432  000130  A4C7               	btfss	4039,2,c	;volatile
  1433  000132  D001               	goto	i2u49_41
  1434  000134  D001               	goto	i2u49_40
  1435  000136                     i2u49_41:
  1436  000136  D033               	goto	i2l1121
  1437  000138                     i2u49_40:
  1438  000138                     
  1439                           ;main_CV.c: 267: if(!SSPSTATbits.D_nA) {
  1440  000138  BAC7               	btfsc	4039,5,c	;volatile
  1441  00013A  D001               	goto	i2u50_41
  1442  00013C  D001               	goto	i2u50_40
  1443  00013E                     i2u50_41:
  1444  00013E  D00E               	goto	i2l1109
  1445  000140                     i2u50_40:
  1446  000140                     
  1447                           ;main_CV.c: 269: SSPBUF = i2c_tx_registers[i2c_dev_reg][0u];
  1448  000140  5017               	movf	_i2c_dev_reg,w,c
  1449  000142  0F67               	addlw	low _i2c_tx_registers
  1450  000144  6ED9               	movwf	fsr2l,c
  1451  000146  6ADA               	clrf	fsr2h,c
  1452  000148  50DF               	movf	indf2,w,c
  1453  00014A  6ED9               	movwf	fsr2l,c
  1454  00014C  6ADA               	clrf	fsr2h,c
  1455  00014E  50DF               	movf	indf2,w,c
  1456  000150  6EC9               	movwf	4041,c	;volatile
  1457  000152                     
  1458                           ;main_CV.c: 270: i2c_index = 1u;
  1459  000152  0E00               	movlw	0
  1460  000154  6E16               	movwf	_i2c_index+1,c
  1461  000156  0E01               	movlw	1
  1462  000158  6E15               	movwf	_i2c_index,c
  1463  00015A                     
  1464                           ;main_CV.c: 271: SSPCON1bits.CKP = 1;
  1465  00015A  88C6               	bsf	4038,4,c	;volatile
  1466  00015C                     i2l1109:
  1467                           
  1468                           ;main_CV.c: 272: }
  1469                           ;main_CV.c: 275: if(SSPSTATbits.D_nA) {
  1470  00015C  AAC7               	btfss	4039,5,c	;volatile
  1471  00015E  D001               	goto	i2u51_41
  1472  000160  D001               	goto	i2u51_40
  1473  000162                     i2u51_41:
  1474  000162  D01D               	goto	i2l1121
  1475  000164                     i2u51_40:
  1476  000164                     
  1477                           ;main_CV.c: 277: if (i2c_index < i2c_tx_reg_sizes[i2c_dev_reg]) {
  1478  000164  5017               	movf	_i2c_dev_reg,w,c
  1479  000166  0F65               	addlw	low _i2c_tx_reg_sizes
  1480  000168  6ED9               	movwf	fsr2l,c
  1481  00016A  6ADA               	clrf	fsr2h,c
  1482  00016C  50DF               	movf	indf2,w,c
  1483  00016E  6E50               	movwf	??_isr& (0+255),c
  1484  000170  5050               	movf	??_isr,w,c
  1485  000172  5C15               	subwf	_i2c_index,w,c
  1486  000174  0E00               	movlw	0
  1487  000176  5816               	subwfb	_i2c_index+1,w,c
  1488  000178  B0D8               	btfsc	status,0,c
  1489  00017A  D001               	goto	i2u52_41
  1490  00017C  D001               	goto	i2u52_40
  1491  00017E                     i2u52_41:
  1492  00017E  D00D               	goto	i2l1117
  1493  000180                     i2u52_40:
  1494  000180                     
  1495                           ;main_CV.c: 278: SSPBUF = i2c_tx_registers[i2c_dev_reg][i2c_index];
  1496  000180  5017               	movf	_i2c_dev_reg,w,c
  1497  000182  0F67               	addlw	low _i2c_tx_registers
  1498  000184  6ED9               	movwf	fsr2l,c
  1499  000186  6ADA               	clrf	fsr2h,c
  1500  000188  50DF               	movf	indf2,w,c
  1501  00018A  2415               	addwf	_i2c_index,w,c
  1502  00018C  6ED9               	movwf	fsr2l,c
  1503  00018E  6ADA               	clrf	fsr2h,c
  1504  000190  50DF               	movf	indf2,w,c
  1505  000192  6EC9               	movwf	4041,c	;volatile
  1506  000194                     
  1507                           ;main_CV.c: 279: i2c_index++;
  1508  000194  4A15               	infsnz	_i2c_index,f,c
  1509  000196  2A16               	incf	_i2c_index+1,f,c
  1510                           
  1511                           ;main_CV.c: 280: }
  1512  000198  D001               	goto	i2l1119
  1513  00019A                     i2l1117:
  1514                           
  1515                           ;main_CV.c: 282: else {
  1516                           ;main_CV.c: 283: dummy = SSPBUF;
  1517  00019A  50C9               	movf	4041,w,c	;volatile
  1518  00019C                     i2l1119:
  1519                           
  1520                           ;main_CV.c: 284: }
  1521                           ;main_CV.c: 286: SSPCON1bits.CKP = 1;
  1522  00019C  88C6               	bsf	4038,4,c	;volatile
  1523  00019E                     i2l1121:
  1524                           
  1525                           ;main_CV.c: 287: }
  1526                           ;main_CV.c: 288: }
  1527                           ;main_CV.c: 291: if(!SSPSTATbits.R_nW) {
  1528  00019E  B4C7               	btfsc	4039,2,c	;volatile
  1529  0001A0  D001               	goto	i2u53_41
  1530  0001A2  D001               	goto	i2u53_40
  1531  0001A4                     i2u53_41:
  1532  0001A4  D033               	goto	i2l1155
  1533  0001A6                     i2u53_40:
  1534  0001A6                     
  1535                           ;main_CV.c: 294: if(!SSPSTATbits.D_nA) {
  1536  0001A6  BAC7               	btfsc	4039,5,c	;volatile
  1537  0001A8  D001               	goto	i2u54_41
  1538  0001AA  D001               	goto	i2u54_40
  1539  0001AC                     i2u54_41:
  1540  0001AC  D003               	goto	i2l1131
  1541  0001AE                     i2u54_40:
  1542  0001AE                     
  1543                           ;main_CV.c: 295: dummy = SSPBUF;
  1544  0001AE  50C9               	movf	4041,w,c	;volatile
  1545  0001B0                     
  1546                           ;main_CV.c: 296: i2c_state = I2C_SET_DEV_REG;
  1547  0001B0  6A18               	clrf	_i2c_state,c
  1548  0001B2                     
  1549                           ;main_CV.c: 297: SSPCON1bits.CKP = 1;
  1550  0001B2  88C6               	bsf	4038,4,c	;volatile
  1551  0001B4                     i2l1131:
  1552                           
  1553                           ;main_CV.c: 298: }
  1554                           ;main_CV.c: 300: if(SSPSTATbits.D_nA) {
  1555  0001B4  AAC7               	btfss	4039,5,c	;volatile
  1556  0001B6  D001               	goto	i2u55_41
  1557  0001B8  D001               	goto	i2u55_40
  1558  0001BA                     i2u55_41:
  1559  0001BA  D028               	goto	i2l1155
  1560  0001BC                     i2u55_40:
  1561  0001BC                     
  1562                           ;main_CV.c: 302: if(i2c_state == I2C_SET_DEV_REG) {
  1563  0001BC  6618               	tstfsz	_i2c_state,c
  1564  0001BE  D001               	goto	i2u56_41
  1565  0001C0  D001               	goto	i2u56_40
  1566  0001C2                     i2u56_41:
  1567  0001C2  D007               	goto	i2l1139
  1568  0001C4                     i2u56_40:
  1569  0001C4                     
  1570                           ;main_CV.c: 303: i2c_dev_reg = SSPBUF;
  1571  0001C4  CFC9 F017          	movff	4041,_i2c_dev_reg	;volatile
  1572                           
  1573                           ;main_CV.c: 304: i2c_index = 0;
  1574  0001C8  6A15               	clrf	_i2c_index,c
  1575  0001CA  6A16               	clrf	_i2c_index+1,c
  1576  0001CC                     
  1577                           ;main_CV.c: 305: i2c_state = I2C_DATA;
  1578  0001CC  0E01               	movlw	1
  1579  0001CE  6E18               	movwf	_i2c_state,c
  1580                           
  1581                           ;main_CV.c: 306: }
  1582  0001D0  D016               	goto	i2l1147
  1583  0001D2                     i2l1139:
  1584                           
  1585                           ;main_CV.c: 308: else {
  1586                           ;main_CV.c: 309: if(i2c_index < 32u) {
  1587  0001D2  0E20               	movlw	32
  1588  0001D4  5C15               	subwf	_i2c_index,w,c
  1589  0001D6  0E00               	movlw	0
  1590  0001D8  5816               	subwfb	_i2c_index+1,w,c
  1591  0001DA  B0D8               	btfsc	status,0,c
  1592  0001DC  D001               	goto	i2u57_41
  1593  0001DE  D001               	goto	i2u57_40
  1594  0001E0                     i2u57_41:
  1595  0001E0  D00D               	goto	i2l1145
  1596  0001E2                     i2u57_40:
  1597  0001E2                     
  1598                           ;main_CV.c: 310: i2c_rx_registers[i2c_dev_reg][i2c_index] = SSPBUF;
  1599  0001E2  5017               	movf	_i2c_dev_reg,w,c
  1600  0001E4  0F69               	addlw	low _i2c_rx_registers
  1601  0001E6  6ED9               	movwf	fsr2l,c
  1602  0001E8  6ADA               	clrf	fsr2h,c
  1603  0001EA  50DF               	movf	indf2,w,c
  1604  0001EC  2415               	addwf	_i2c_index,w,c
  1605  0001EE  6ED9               	movwf	fsr2l,c
  1606  0001F0  6ADA               	clrf	fsr2h,c
  1607  0001F2  CFC9 FFDF          	movff	4041,indf2	;volatile
  1608  0001F6                     
  1609                           ;main_CV.c: 311: i2c_index++;
  1610  0001F6  4A15               	infsnz	_i2c_index,f,c
  1611  0001F8  2A16               	incf	_i2c_index+1,f,c
  1612                           
  1613                           ;main_CV.c: 312: }
  1614  0001FA  D001               	goto	i2l1147
  1615  0001FC                     i2l1145:
  1616                           
  1617                           ;main_CV.c: 314: else {
  1618                           ;main_CV.c: 315: dummy = SSPBUF;
  1619  0001FC  50C9               	movf	4041,w,c	;volatile
  1620  0001FE                     i2l1147:
  1621                           
  1622                           ;main_CV.c: 316: }
  1623                           ;main_CV.c: 317: }
  1624                           ;main_CV.c: 320: if(SSPCON1bits.WCOL) {
  1625  0001FE  AEC6               	btfss	4038,7,c	;volatile
  1626  000200  D001               	goto	i2u58_41
  1627  000202  D001               	goto	i2u58_40
  1628  000204                     i2u58_41:
  1629  000204  D002               	goto	i2l1153
  1630  000206                     i2u58_40:
  1631  000206                     
  1632                           ;main_CV.c: 321: SSPCON1bits.WCOL = 0;
  1633  000206  9EC6               	bcf	4038,7,c	;volatile
  1634  000208                     
  1635                           ;main_CV.c: 322: dummy = SSPBUF;
  1636  000208  50C9               	movf	4041,w,c	;volatile
  1637  00020A                     i2l1153:
  1638                           
  1639                           ;main_CV.c: 323: }
  1640                           ;main_CV.c: 325: SSPCON1bits.CKP = 1;
  1641  00020A  88C6               	bsf	4038,4,c	;volatile
  1642  00020C                     i2l1155:
  1643                           
  1644                           ;main_CV.c: 326: }
  1645                           ;main_CV.c: 327: }
  1646                           ;main_CV.c: 329: SSPIF = 0;
  1647  00020C  969E               	bcf	3998,3,c	;volatile
  1648  00020E                     i2l1157:
  1649                           
  1650                           ;main_CV.c: 330: }
  1651                           ;main_CV.c: 333: if(BCLIF) {
  1652  00020E  A6A1               	btfss	4001,3,c	;volatile
  1653  000210  D001               	goto	i2u59_41
  1654  000212  D001               	goto	i2u59_40
  1655  000214                     i2u59_41:
  1656  000214  D004               	goto	i2l224
  1657  000216                     i2u59_40:
  1658  000216                     
  1659                           ;main_CV.c: 335: dummy = SSPBUF;
  1660  000216  50C9               	movf	4041,w,c	;volatile
  1661  000218                     
  1662                           ;main_CV.c: 336: BCLIF = 0;
  1663  000218  96A1               	bcf	4001,3,c	;volatile
  1664  00021A                     
  1665                           ;main_CV.c: 337: SSPCON1bits.CKP = 1;
  1666  00021A  88C6               	bsf	4038,4,c	;volatile
  1667  00021C                     
  1668                           ;main_CV.c: 338: SSPIF = 0;
  1669  00021C  969E               	bcf	3998,3,c	;volatile
  1670  00021E                     i2l224:
  1671  00021E  C055  FFDA         	movff	??_isr+5,fsr2h
  1672  000222  C054  FFD9         	movff	??_isr+4,fsr2l
  1673  000226  0011               	retfie		f
  1674  000228                     __end_of_isr:
  1675                           	opt stack 0
  1676                           tblptru	equ	0xFF8
  1677                           tblptrh	equ	0xFF7
  1678                           tblptrl	equ	0xFF6
  1679                           tablat	equ	0xFF5
  1680                           intcon	equ	0xFF2
  1681                           postinc0	equ	0xFEE
  1682                           wreg	equ	0xFE8
  1683                           postdec1	equ	0xFE5
  1684                           fsr1l	equ	0xFE1
  1685                           indf2	equ	0xFDF
  1686                           fsr2h	equ	0xFDA
  1687                           fsr2l	equ	0xFD9
  1688                           status	equ	0xFD8
  1689                           
  1690 ;; *************** function i2___llmod *****************
  1691 ;; Defined at:
  1692 ;;		line 10 in file "C:\Program Files (x86)\HI-TECH Software\PICC-18\9.80\sources\llmod.c"
  1693 ;; Parameters:    Size  Location     Type
  1694 ;;  __llmod         4    0[COMRAM] unsigned long 
  1695 ;;  __llmod         4    4[COMRAM] unsigned long 
  1696 ;; Auto vars:     Size  Location     Type
  1697 ;;  __llmod         1    8[COMRAM] unsigned char 
  1698 ;; Return value:  Size  Location     Type
  1699 ;;                  4    0[COMRAM] unsigned long 
  1700 ;; Registers used:
  1701 ;;		wreg, status,2, status,0
  1702 ;; Tracked objects:
  1703 ;;		On entry : 0/0
  1704 ;;		On exit  : 0/0
  1705 ;;		Unchanged: FFFFFFFF/0
  1706 ;; Data sizes:     COMRAM   BANK0   BANK1   BANK2   BANK3   BANK4   BANK5
  1707 ;;      Params:         8       0       0       0       0       0       0
  1708 ;;      Locals:         1       0       0       0       0       0       0
  1709 ;;      Temps:          0       0       0       0       0       0       0
  1710 ;;      Totals:         9       0       0       0       0       0       0
  1711 ;;Total ram usage:        9 bytes
  1712 ;; Hardware stack levels used:    1
  1713 ;; This function calls:
  1714 ;;		Nothing
  1715 ;; This function is called by:
  1716 ;;		_isr
  1717 ;; This function uses a non-reentrant model
  1718 ;;
  1719                           
  1720                           	psect	text7
  1721  0003CC                     __ptext7:
  1722                           	opt stack 0
  1723  0003CC                     i2___llmod:
  1724                           	opt stack 28
  1725  0003CC  504E               	movf	i2___llmod@divisor+3,w,c
  1726  0003CE  104B               	iorwf	i2___llmod@divisor,w,c
  1727  0003D0  104C               	iorwf	i2___llmod@divisor+1,w,c
  1728  0003D2  104D               	iorwf	i2___llmod@divisor+2,w,c
  1729  0003D4  E023               	bz	i2l626
  1730  0003D6  0E01               	movlw	1
  1731  0003D8  6E4F               	movwf	i2___llmod@counter,c
  1732  0003DA  D006               	goto	i2l1051
  1733  0003DC                     i2l1049:
  1734  0003DC  90D8               	bcf	status,0,c
  1735  0003DE  364B               	rlcf	i2___llmod@divisor,f,c
  1736  0003E0  364C               	rlcf	i2___llmod@divisor+1,f,c
  1737  0003E2  364D               	rlcf	i2___llmod@divisor+2,f,c
  1738  0003E4  364E               	rlcf	i2___llmod@divisor+3,f,c
  1739  0003E6  2A4F               	incf	i2___llmod@counter,f,c
  1740  0003E8                     i2l1051:
  1741  0003E8  AE4E               	btfss	i2___llmod@divisor+3,7,c
  1742  0003EA  D7F8               	goto	i2l1049
  1743  0003EC                     i2l1053:
  1744  0003EC  504B               	movf	i2___llmod@divisor,w,c
  1745  0003EE  5C47               	subwf	i2___llmod@dividend,w,c
  1746  0003F0  504C               	movf	i2___llmod@divisor+1,w,c
  1747  0003F2  5848               	subwfb	i2___llmod@dividend+1,w,c
  1748  0003F4  504D               	movf	i2___llmod@divisor+2,w,c
  1749  0003F6  5849               	subwfb	i2___llmod@dividend+2,w,c
  1750  0003F8  504E               	movf	i2___llmod@divisor+3,w,c
  1751  0003FA  584A               	subwfb	i2___llmod@dividend+3,w,c
  1752  0003FC  E308               	bnc	i2l1057
  1753  0003FE  504B               	movf	i2___llmod@divisor,w,c
  1754  000400  5E47               	subwf	i2___llmod@dividend,f,c
  1755  000402  504C               	movf	i2___llmod@divisor+1,w,c
  1756  000404  5A48               	subwfb	i2___llmod@dividend+1,f,c
  1757  000406  504D               	movf	i2___llmod@divisor+2,w,c
  1758  000408  5A49               	subwfb	i2___llmod@dividend+2,f,c
  1759  00040A  504E               	movf	i2___llmod@divisor+3,w,c
  1760  00040C  5A4A               	subwfb	i2___llmod@dividend+3,f,c
  1761  00040E                     i2l1057:
  1762  00040E  90D8               	bcf	status,0,c
  1763  000410  324E               	rrcf	i2___llmod@divisor+3,f,c
  1764  000412  324D               	rrcf	i2___llmod@divisor+2,f,c
  1765  000414  324C               	rrcf	i2___llmod@divisor+1,f,c
  1766  000416  324B               	rrcf	i2___llmod@divisor,f,c
  1767  000418  2E4F               	decfsz	i2___llmod@counter,f,c
  1768  00041A  D7E8               	goto	i2l1053
  1769  00041C                     i2l626:
  1770  00041C  C047  F047         	movff	i2___llmod@dividend,?i2___llmod
  1771  000420  C048  F048         	movff	i2___llmod@dividend+1,?i2___llmod+1
  1772  000424  C049  F049         	movff	i2___llmod@dividend+2,?i2___llmod+2
  1773  000428  C04A  F04A         	movff	i2___llmod@dividend+3,?i2___llmod+3
  1774  00042C  0012               	return	
  1775  00042E                     __end_ofi2___llmod:
  1776                           	opt stack 0
  1777  0000                     tblptru	equ	0xFF8
  1778                           tblptrh	equ	0xFF7
  1779                           tblptrl	equ	0xFF6
  1780                           tablat	equ	0xFF5
  1781                           intcon	equ	0xFF2
  1782                           postinc0	equ	0xFEE
  1783                           wreg	equ	0xFE8
  1784                           postdec1	equ	0xFE5
  1785                           fsr1l	equ	0xFE1
  1786                           indf2	equ	0xFDF
  1787                           fsr2h	equ	0xFDA
  1788                           fsr2l	equ	0xFD9
  1789                           status	equ	0xFD8
  1790                           tblptru	equ	0xFF8
  1791                           tblptrh	equ	0xFF7
  1792                           tblptrl	equ	0xFF6
  1793                           tablat	equ	0xFF5
  1794                           intcon	equ	0xFF2
  1795                           postinc0	equ	0xFEE
  1796                           wreg	equ	0xFE8
  1797                           postdec1	equ	0xFE5
  1798                           fsr1l	equ	0xFE1
  1799                           indf2	equ	0xFDF
  1800                           fsr2h	equ	0xFDA
  1801                           fsr2l	equ	0xFD9
  1802                           status	equ	0xFD8
  1803                           
  1804                           	psect	text8
  1805  000000                     __ptext8:
  1806                           	opt stack 0
  1807                           tblptru	equ	0xFF8
  1808                           tblptrh	equ	0xFF7
  1809                           tblptrl	equ	0xFF6
  1810                           tablat	equ	0xFF5
  1811                           intcon	equ	0xFF2
  1812                           postinc0	equ	0xFEE
  1813                           wreg	equ	0xFE8
  1814                           postdec1	equ	0xFE5
  1815                           fsr1l	equ	0xFE1
  1816                           indf2	equ	0xFDF
  1817                           fsr2h	equ	0xFDA
  1818                           fsr2l	equ	0xFD9
  1819                           status	equ	0xFD8
  1820                           
  1821                           	psect	rparam
  1822  0000                     tblptru	equ	0xFF8
  1823                           tblptrh	equ	0xFF7
  1824                           tblptrl	equ	0xFF6
  1825                           tablat	equ	0xFF5
  1826                           intcon	equ	0xFF2
  1827                           postinc0	equ	0xFEE
  1828                           wreg	equ	0xFE8
  1829                           postdec1	equ	0xFE5
  1830                           fsr1l	equ	0xFE1
  1831                           indf2	equ	0xFDF
  1832                           fsr2h	equ	0xFDA
  1833                           fsr2l	equ	0xFD9
  1834                           status	equ	0xFD8
  1835                           tblptru	equ	0xFF8
  1836                           tblptrh	equ	0xFF7
  1837                           tblptrl	equ	0xFF6
  1838                           tablat	equ	0xFF5
  1839                           intcon	equ	0xFF2
  1840                           postinc0	equ	0xFEE
  1841                           wreg	equ	0xFE8
  1842                           postdec1	equ	0xFE5
  1843                           fsr1l	equ	0xFE1
  1844                           indf2	equ	0xFDF
  1845                           fsr2h	equ	0xFDA
  1846                           fsr2l	equ	0xFD9
  1847                           status	equ	0xFD8


Data Sizes:
    Strings     0
    Constant    0
    Data        6
    BSS         70
    Persistent  0
    Stack       0

Auto Spaces:
    Space          Size  Autos    Used
    COMRAM          127     30     106
    BANK0           128      0       0
    BANK1           256      0       0
    BANK2           256      0       0
    BANK3           256      0       0
    BANK4           256      0       0
    BANK5           256      0       0

Pointer List with Targets:

    ?___wmul	unsigned int  size(1) Largest target is 0

    ?___llmod	unsigned long  size(1) Largest target is 0

    i2c_tx_registers	PTR unsigned char [2] size(1) Largest target is 14
		 -> acquisition_data(COMRAM[14]), camera_order(COMRAM[1]), 

    i2c_rx_registers	PTR unsigned char [1] size(1) Largest target is 32
		 -> i2c_rx_frame(COMRAM[32]), 


Critical Paths under _main in COMRAM

    _main->___llmod

Critical Paths under _isr in COMRAM

    _isr->i2___llmod

Critical Paths under _main in BANK0

    None.

Critical Paths under _isr in BANK0

    None.

Critical Paths under _main in BANK1

    None.

Critical Paths under _isr in BANK1

    None.

Critical Paths under _main in BANK2

    None.

Critical Paths under _isr in BANK2

    None.

Critical Paths under _main in BANK3

    None.

Critical Paths under _isr in BANK3

    None.

Critical Paths under _main in BANK4

    None.

Critical Paths under _isr in BANK4

    None.

Critical Paths under _main in BANK5

    None.

Critical Paths under _isr in BANK5

    None.

Call Graph Tables:

 ---------------------------------------------------------------------------------
 (Depth) Function   	        Calls       Base Space   Used Autos Params    Refs
 ---------------------------------------------------------------------------------
 (0) _main                                                10    10      0     420
                                             24 COMRAM     6     6      0
                           _settings
                     _i2c_slave_init
                           _sendtemp
                            ___llmod
                             ___wmul
 ---------------------------------------------------------------------------------
 (1) _i2c_slave_init                                       1     1      0      15
                                             15 COMRAM     1     1      0
 ---------------------------------------------------------------------------------
 (1) _settings                                             0     0      0       0
 ---------------------------------------------------------------------------------
 (1) _sendtemp                                             4     2      2      60
                                             15 COMRAM     4     2      2
 ---------------------------------------------------------------------------------
 (1) ___llmod                                              9     1      8     105
                                             15 COMRAM     9     1      8
 ---------------------------------------------------------------------------------
 (1) ___wmul                                               6     2      4      60
                                             15 COMRAM     6     2      4
 ---------------------------------------------------------------------------------
 Estimated maximum stack depth 1
 ---------------------------------------------------------------------------------
 (Depth) Function   	        Calls       Base Space   Used Autos Params    Refs
 ---------------------------------------------------------------------------------
 (2) _isr                                                  6     6      0     420
                                              9 COMRAM     6     6      0
                          i2___llmod
 ---------------------------------------------------------------------------------
 (3) i2___llmod                                            9     1      8     420
                                              0 COMRAM     9     1      8
 ---------------------------------------------------------------------------------
 Estimated maximum stack depth 3
 ---------------------------------------------------------------------------------

 Call Graph Graphs:

 _main (ROOT)
   _settings
   _i2c_slave_init
   _sendtemp
   ___llmod
   ___wmul

 _isr (ROOT)
   i2___llmod

 Address spaces:
Name               Size   Autos  Total    Cost      Usage
BIGRAM             5FF      0       0      17        0.0%
EEDATA             100      0       0       0        0.0%
BITBANK5           100      0       0      16        0.0%
BANK5              100      0       0      14        0.0%
BITBANK4           100      0       0      12        0.0%
BANK4              100      0       0      13        0.0%
BITBANK3           100      0       0      10        0.0%
BANK3              100      0       0      11        0.0%
BITBANK2           100      0       0       8        0.0%
BANK2              100      0       0       9        0.0%
BITBANK1           100      0       0       6        0.0%
BANK1              100      0       0       7        0.0%
BITBANK0            80      0       0       4        0.0%
BANK0               80      0       0       5        0.0%
BITCOMRAM           7F      0       0       0        0.0%
COMRAM              7F     1E      6A       1       83.5%
BITSFR               0      0       0      40        0.0%
SFR                  0      0       0      40        0.0%
STACK                0      0       5       2        0.0%
NULL                 0      0       0       0        0.0%
ABS                  0      0      6A      15        0.0%
DATA                 0      0      6F       3        0.0%
CODE                 0      0       0       0        0.0%


HI-TECH Software PICC-18 Macro Assembler V9.80 build 11162 
Symbol Table                                                                                   Wed Jan 08 17:44:06 2014

            _SSPSTATbits 000FC7                       _GO 007E11      ___wmul@multiplicand 0058  
           __CFG_CP0$OFF 000000             __CFG_CP1$OFF 000000             __CFG_CP2$OFF 000000  
           __CFG_CP3$OFF 000000              __CFG_OSC$HS 000000                      l180 0540  
                    l174 03C8                      l183 054C                      l721 0514  
                    l626 047E                      l901 0258                      l911 0278  
                    l915 0288                      l909 0270                      l935 02C0  
                    l961 0316                      l891 023E                      l991 036C  
                    l899 0250                      _GIE 007F97             __CFG_CPB$OFF 000000  
                    _RB1 007C09                      _RB2 007C0A                      _RB3 007C0B  
                    _RB4 007C0C                      _RB5 007C0D                      _RB6 007C0E  
                    _RB7 007C0F                      _PR2 000FCB             __CFG_CPD$OFF 000000  
                    _isr 0008                      wreg 000FE8             __CFG_LVP$OFF 000000  
           __CFG_WDT$OFF 000000                     l1011 044A                     l1013 044E  
                   l1025 0520                     l1017 0470                     l1009 043E  
                   ?_isr 0047                     _IPEN 007E87                     _PEIE 007F96  
                   _RCIE 007CED                     _RCIF 007CF5                     _TXIF 007CF4  
           __CFG_PWRT$ON 000000                     _conv 0011                     _main 0228  
                   fsr2h 000FDA                     fsr1l 000FE1                     indf2 000FDF  
                   fsr2l 000FD9                     start 0014            __CFG_IESO$OFF 000000  
                  ??_isr 0050                    ?_main 0047                    _BCLIF 007D0B  
                  _T0CON 000FD5          __end_of___llmod 0490                    _T2CON 000FCA  
                  i2l206 0108                    i2l224 021E                    i2l626 041C  
                  _RCREG 000FAE                    _RCSTA 000FAB                    _TMR0H 000FD7  
                  _TMR0L 000FD6                    _SPBRG 000FAF                    _PORTA 000F80  
                  _PORTB 000F81                    _PORTC 000F82                    _TRISA 000F92  
                  _TRISB 000F93                    _TRISC 000F94                    _SSPIF 007CF3  
                  _TXREG 000FAD                    _TXSTA 000FAC            __CFG_WRT0$OFF 000000  
          __CFG_WRT1$OFF 000000            __CFG_WRT2$OFF 000000            __CFG_WRT3$OFF 000000  
         __CFG_EBTR0$OFF 000000           __CFG_FCMEN$OFF 000000           __CFG_EBTR1$OFF 000000  
         __CFG_EBTR2$OFF 000000           __CFG_EBTR3$OFF 000000            __CFG_WRTB$OFF 000000  
          __CFG_WRTC$OFF 000000            __CFG_WRTD$OFF 000000           __CFG_EBTRB$OFF 000000  
         __CFG_BOREN$OFF 000000                    tablat 000FF5                    status 000FD8  
     __size_ofi2___llmod 0062             __end_of_main 0556             _DEBOUNCEflag 0005  
                 ??_main 005F            __activetblptr 000000           _i2c_slave_init 0556  
                 _ADCON0 000FC2                   _ADCON1 000FC1                   _ADCON2 000FC0  
       ___llmod@dividend 0056                   _ADRESH 000FC4                   _ADRESL 000FC3  
                 _CCPR1L 000FBE                   i2l1101 0138                   i2l1111 0164  
                 i2l1103 0140                   i2l1113 0180                   i2l1105 0152  
                 i2l1121 019E                   i2l1051 03E8                   i2l1131 01B4  
                 i2l1123 01A6                   i2l1115 0194                   i2l1107 015A  
                 i2l1053 03EC                   i2l1141 01E2                   i2l1133 01BC  
                 i2l1125 01AE                   i2l1117 019A                   i2l1109 015C  
                 i2l1061 001A                   i2l1151 0208                   i2l1143 01F6  
                 i2l1135 01C4                   i2l1127 01B0                   i2l1119 019C  
                 i2l1071 0066                   i2l1063 0022                   i2l1057 040E  
                 i2l1049 03DC                   i2l1161 0218                   i2l1153 020A  
                 i2l1145 01FC                   i2l1137 01CC                   i2l1129 01B2  
                 i2l1081 00B6                   i2l1073 0068                   i2l1065 0024  
                 i2l1163 021A                   i2l1147 01FE                   i2l1139 01D2  
                 i2l1155 020C                   i2l1091 010C                   i2l1083 00EA  
                 i2l1075 0086                   i2l1067 002C                   i2l1165 021C  
                 i2l1149 0206                   i2l1157 020E                   i2l1093 011C  
                 i2l1085 00F2                   i2l1077 008A                   i2l1069 003C  
                 i2l1159 0216                   i2l1095 0124                   i2l1087 00FE  
                 i2l1079 00B4                   i2l1089 0102                   i2l1097 0128  
                 i2l1099 0130                   _TMR0IE 007F95                   _TMR0IF 007F92  
                 _SSPADD 000FC8                   _SSPBUF 000FC9           __CFG_XINST$OFF 000000  
                 ___wmul 0510                ??___llmod 005E               _TimerLaser 000F  
       _TimerAcquisition 0001                   clear_0 04E4   __end_of_i2c_slave_init 056A  
       __end_of_sendtemp 0556             __pdataCOMRAM 0065             _camera_order 006A  
      __end_ofi2___llmod 042E         __end_of_settings 04DE                   tblptrh 000FF7  
                 tblptrl 000FF6                   tblptru 000FF8               __accesstop 0080  
        __CFG_PBADEN$OFF 000000              _i2c_dev_reg 0017        i2___llmod@divisor 004B  
      i2___llmod@counter 004F           __pcstackCOMRAM 0047            _DEBOUNCEstate 0007  
        ?_i2c_slave_init 0047                  ?___wmul 0056                  _CCP1CON 000FBD  
                _BAUDCON 000FB8                  i2u41_40 0022                  i2u41_41 0020  
                i2u50_40 0140                  i2u42_40 0066                  i2u50_41 013E  
                i2u42_41 0064                  i2u42_45 005E                  i2u51_40 0164  
                i2u43_40 0086                  i2u51_41 0162                  i2u43_41 0084  
                i2u43_45 007E                  i2u52_40 0180                  i2u44_40 00B4  
                i2u52_41 017E                  i2u44_41 00B2                  i2u44_45 00AC  
                i2u53_40 01A6                  i2u45_40 00EA                  i2u53_41 01A4  
                i2u45_41 00E8                  i2u54_40 01AE                  i2u46_40 00FE  
                i2u54_41 01AC                  i2u46_41 00FC                  i2u55_40 01BC  
                i2u47_40 011C                  i2u55_41 01BA                  i2u47_41 011A  
                i2u56_40 01C4                  i2u48_40 0130                  i2u56_41 01C2  
                i2u48_41 012E                  i2u57_40 01E2                  i2u49_40 0138  
                i2u57_41 01E0                  i2u49_41 0136                  i2u58_40 0206  
                i2u58_41 0204                  i2u59_40 0216                  i2u59_41 0214  
                _SSPCON1 000FC6                  _SSPSTAT 000FC7                  __Hparam 0000  
                __Lparam 0000                ?_sendtemp 0056                ?_settings 0047  
        __size_of___wmul 002C                  ___llmod 042E          __CFG_STVREN$OFF 000000  
            _TimerHeater 000D                  __pcinit 04DE                  __ramtop 0600  
           _heater_power 0013                  __ptext0 0228                  __ptext1 0556  
                __ptext2 0490                  __ptext3 053C                  __ptext4 042E  
                __ptext5 0510                  __ptext7 03CC                  __ptext8 0000  
           __size_of_isr 0220           __pintcode_body 0018     end_of_initialization 050A  
       i2c_slave_init@id 0056                  int_func 0018               ??_sendtemp 0058  
                postdec1 000FE5               ??_settings 0056                  postinc0 000FEE  
              i2___llmod 03CC       i2___llmod@dividend 0047         ??_i2c_slave_init 0056  
         __end_of___wmul 053C             _i2c_rx_frame 0019            __pidataCOMRAM 056A  
    start_initialization 04DE                _i2c_index 0015                _i2c_state 0018  
            __end_of_isr 0228               ?i2___llmod 0047          ___llmod@divisor 005A  
        ___llmod@counter 005E                 ??___wmul 005A              __pbssCOMRAM 0001  
          _TimerDebounce 000B        __CFG_CCP2MX$PORTC 000000                __pintcode 0008  
      __size_of_sendtemp 001A                 ?___llmod 0056            sendtemp@tempH 0058  
          sendtemp@tempL 0059        __size_of_settings 004E              ??i2___llmod 004F  
         ___wmul@product 005A        ___wmul@multiplier 0056                 _SOEstate 0009  
              copy_data0 04FE         _i2c_rx_registers 0069                 __Hrparam 0000  
               __Lrparam 0000         __size_of___llmod 0062         _acquisition_data 0039  
           sendtemp@temp 0056            __size_of_main 032E         _i2c_tx_reg_sizes 0065  
       _i2c_tx_registers 0067                 _sendtemp 053C                 _settings 0490  
               intlevel2 0000           main@SODSenable 0061  __size_of_i2c_slave_init 0014  
            _SSPCON1bits 000FC6              _SSPCON2bits 000FC5            main@SOEenable 005F  
           main@LOenable 0063  
